bomb:     file format elf64-x86-64


Disassembly of section .init:

0000000000400a18 <_init>:
  400a18:	48 83 ec 08          	sub    $0x8,%rsp
  400a1c:	e8 0b 02 00 00       	callq  400c2c <call_gmon_start>
  400a21:	e8 8a 02 00 00       	callq  400cb0 <frame_dummy>
  400a26:	e8 f5 1e 00 00       	callq  402920 <__do_global_ctors_aux>
  400a2b:	48 83 c4 08          	add    $0x8,%rsp
  400a2f:	c3                   	retq   

Disassembly of section .plt:

0000000000400a30 <printf@plt-0x10>:
  400a30:	ff 35 a2 2c 20 00    	pushq  0x202ca2(%rip)        # 6036d8 <_GLOBAL_OFFSET_TABLE_+0x8>
  400a36:	ff 25 a4 2c 20 00    	jmpq   *0x202ca4(%rip)        # 6036e0 <_GLOBAL_OFFSET_TABLE_+0x10>
  400a3c:	0f 1f 40 00          	nopl   0x0(%rax)

0000000000400a40 <printf@plt>:
  400a40:	ff 25 a2 2c 20 00    	jmpq   *0x202ca2(%rip)        # 6036e8 <_GLOBAL_OFFSET_TABLE_+0x18>
  400a46:	68 00 00 00 00       	pushq  $0x0
  400a4b:	e9 e0 ff ff ff       	jmpq   400a30 <_init+0x18>

0000000000400a50 <memset@plt>:
  400a50:	ff 25 9a 2c 20 00    	jmpq   *0x202c9a(%rip)        # 6036f0 <_GLOBAL_OFFSET_TABLE_+0x20>
  400a56:	68 01 00 00 00       	pushq  $0x1
  400a5b:	e9 d0 ff ff ff       	jmpq   400a30 <_init+0x18>

0000000000400a60 <close@plt>:
  400a60:	ff 25 92 2c 20 00    	jmpq   *0x202c92(%rip)        # 6036f8 <_GLOBAL_OFFSET_TABLE_+0x28>
  400a66:	68 02 00 00 00       	pushq  $0x2
  400a6b:	e9 c0 ff ff ff       	jmpq   400a30 <_init+0x18>

0000000000400a70 <gethostbyname@plt>:
  400a70:	ff 25 8a 2c 20 00    	jmpq   *0x202c8a(%rip)        # 603700 <_GLOBAL_OFFSET_TABLE_+0x30>
  400a76:	68 03 00 00 00       	pushq  $0x3
  400a7b:	e9 b0 ff ff ff       	jmpq   400a30 <_init+0x18>

0000000000400a80 <puts@plt>:
  400a80:	ff 25 82 2c 20 00    	jmpq   *0x202c82(%rip)        # 603708 <_GLOBAL_OFFSET_TABLE_+0x38>
  400a86:	68 04 00 00 00       	pushq  $0x4
  400a8b:	e9 a0 ff ff ff       	jmpq   400a30 <_init+0x18>

0000000000400a90 <htons@plt>:
  400a90:	ff 25 7a 2c 20 00    	jmpq   *0x202c7a(%rip)        # 603710 <_GLOBAL_OFFSET_TABLE_+0x40>
  400a96:	68 05 00 00 00       	pushq  $0x5
  400a9b:	e9 90 ff ff ff       	jmpq   400a30 <_init+0x18>

0000000000400aa0 <exit@plt>:
  400aa0:	ff 25 72 2c 20 00    	jmpq   *0x202c72(%rip)        # 603718 <_GLOBAL_OFFSET_TABLE_+0x48>
  400aa6:	68 06 00 00 00       	pushq  $0x6
  400aab:	e9 80 ff ff ff       	jmpq   400a30 <_init+0x18>

0000000000400ab0 <read@plt>:
  400ab0:	ff 25 6a 2c 20 00    	jmpq   *0x202c6a(%rip)        # 603720 <_GLOBAL_OFFSET_TABLE_+0x50>
  400ab6:	68 07 00 00 00       	pushq  $0x7
  400abb:	e9 70 ff ff ff       	jmpq   400a30 <_init+0x18>

0000000000400ac0 <fopen@plt>:
  400ac0:	ff 25 62 2c 20 00    	jmpq   *0x202c62(%rip)        # 603728 <_GLOBAL_OFFSET_TABLE_+0x58>
  400ac6:	68 08 00 00 00       	pushq  $0x8
  400acb:	e9 60 ff ff ff       	jmpq   400a30 <_init+0x18>

0000000000400ad0 <__libc_start_main@plt>:
  400ad0:	ff 25 5a 2c 20 00    	jmpq   *0x202c5a(%rip)        # 603730 <_GLOBAL_OFFSET_TABLE_+0x60>
  400ad6:	68 09 00 00 00       	pushq  $0x9
  400adb:	e9 50 ff ff ff       	jmpq   400a30 <_init+0x18>

0000000000400ae0 <fgets@plt>:
  400ae0:	ff 25 52 2c 20 00    	jmpq   *0x202c52(%rip)        # 603738 <_GLOBAL_OFFSET_TABLE_+0x68>
  400ae6:	68 0a 00 00 00       	pushq  $0xa
  400aeb:	e9 40 ff ff ff       	jmpq   400a30 <_init+0x18>

0000000000400af0 <bcopy@plt>:
  400af0:	ff 25 4a 2c 20 00    	jmpq   *0x202c4a(%rip)        # 603740 <_GLOBAL_OFFSET_TABLE_+0x70>
  400af6:	68 0b 00 00 00       	pushq  $0xb
  400afb:	e9 30 ff ff ff       	jmpq   400a30 <_init+0x18>

0000000000400b00 <__ctype_b_loc@plt>:
  400b00:	ff 25 42 2c 20 00    	jmpq   *0x202c42(%rip)        # 603748 <_GLOBAL_OFFSET_TABLE_+0x78>
  400b06:	68 0c 00 00 00       	pushq  $0xc
  400b0b:	e9 20 ff ff ff       	jmpq   400a30 <_init+0x18>

0000000000400b10 <sprintf@plt>:
  400b10:	ff 25 3a 2c 20 00    	jmpq   *0x202c3a(%rip)        # 603750 <_GLOBAL_OFFSET_TABLE_+0x80>
  400b16:	68 0d 00 00 00       	pushq  $0xd
  400b1b:	e9 10 ff ff ff       	jmpq   400a30 <_init+0x18>

0000000000400b20 <sscanf@plt>:
  400b20:	ff 25 32 2c 20 00    	jmpq   *0x202c32(%rip)        # 603758 <_GLOBAL_OFFSET_TABLE_+0x88>
  400b26:	68 0e 00 00 00       	pushq  $0xe
  400b2b:	e9 00 ff ff ff       	jmpq   400a30 <_init+0x18>

0000000000400b30 <sleep@plt>:
  400b30:	ff 25 2a 2c 20 00    	jmpq   *0x202c2a(%rip)        # 603760 <_GLOBAL_OFFSET_TABLE_+0x90>
  400b36:	68 0f 00 00 00       	pushq  $0xf
  400b3b:	e9 f0 fe ff ff       	jmpq   400a30 <_init+0x18>

0000000000400b40 <atoi@plt>:
  400b40:	ff 25 22 2c 20 00    	jmpq   *0x202c22(%rip)        # 603768 <_GLOBAL_OFFSET_TABLE_+0x98>
  400b46:	68 10 00 00 00       	pushq  $0x10
  400b4b:	e9 e0 fe ff ff       	jmpq   400a30 <_init+0x18>

0000000000400b50 <connect@plt>:
  400b50:	ff 25 1a 2c 20 00    	jmpq   *0x202c1a(%rip)        # 603770 <_GLOBAL_OFFSET_TABLE_+0xa0>
  400b56:	68 11 00 00 00       	pushq  $0x11
  400b5b:	e9 d0 fe ff ff       	jmpq   400a30 <_init+0x18>

0000000000400b60 <gethostname@plt>:
  400b60:	ff 25 12 2c 20 00    	jmpq   *0x202c12(%rip)        # 603778 <_GLOBAL_OFFSET_TABLE_+0xa8>
  400b66:	68 12 00 00 00       	pushq  $0x12
  400b6b:	e9 c0 fe ff ff       	jmpq   400a30 <_init+0x18>

0000000000400b70 <signal@plt>:
  400b70:	ff 25 0a 2c 20 00    	jmpq   *0x202c0a(%rip)        # 603780 <_GLOBAL_OFFSET_TABLE_+0xb0>
  400b76:	68 13 00 00 00       	pushq  $0x13
  400b7b:	e9 b0 fe ff ff       	jmpq   400a30 <_init+0x18>

0000000000400b80 <socket@plt>:
  400b80:	ff 25 02 2c 20 00    	jmpq   *0x202c02(%rip)        # 603788 <_GLOBAL_OFFSET_TABLE_+0xb8>
  400b86:	68 14 00 00 00       	pushq  $0x14
  400b8b:	e9 a0 fe ff ff       	jmpq   400a30 <_init+0x18>

0000000000400b90 <getenv@plt>:
  400b90:	ff 25 fa 2b 20 00    	jmpq   *0x202bfa(%rip)        # 603790 <_GLOBAL_OFFSET_TABLE_+0xc0>
  400b96:	68 15 00 00 00       	pushq  $0x15
  400b9b:	e9 90 fe ff ff       	jmpq   400a30 <_init+0x18>

0000000000400ba0 <alarm@plt>:
  400ba0:	ff 25 f2 2b 20 00    	jmpq   *0x202bf2(%rip)        # 603798 <_GLOBAL_OFFSET_TABLE_+0xc8>
  400ba6:	68 16 00 00 00       	pushq  $0x16
  400bab:	e9 80 fe ff ff       	jmpq   400a30 <_init+0x18>

0000000000400bb0 <__errno_location@plt>:
  400bb0:	ff 25 ea 2b 20 00    	jmpq   *0x202bea(%rip)        # 6037a0 <_GLOBAL_OFFSET_TABLE_+0xd0>
  400bb6:	68 17 00 00 00       	pushq  $0x17
  400bbb:	e9 70 fe ff ff       	jmpq   400a30 <_init+0x18>

0000000000400bc0 <strcpy@plt>:
  400bc0:	ff 25 e2 2b 20 00    	jmpq   *0x202be2(%rip)        # 6037a8 <_GLOBAL_OFFSET_TABLE_+0xd8>
  400bc6:	68 18 00 00 00       	pushq  $0x18
  400bcb:	e9 60 fe ff ff       	jmpq   400a30 <_init+0x18>

0000000000400bd0 <fprintf@plt>:
  400bd0:	ff 25 da 2b 20 00    	jmpq   *0x202bda(%rip)        # 6037b0 <_GLOBAL_OFFSET_TABLE_+0xe0>
  400bd6:	68 19 00 00 00       	pushq  $0x19
  400bdb:	e9 50 fe ff ff       	jmpq   400a30 <_init+0x18>

0000000000400be0 <write@plt>:
  400be0:	ff 25 d2 2b 20 00    	jmpq   *0x202bd2(%rip)        # 6037b8 <_GLOBAL_OFFSET_TABLE_+0xe8>
  400be6:	68 1a 00 00 00       	pushq  $0x1a
  400beb:	e9 40 fe ff ff       	jmpq   400a30 <_init+0x18>

0000000000400bf0 <fflush@plt>:
  400bf0:	ff 25 ca 2b 20 00    	jmpq   *0x202bca(%rip)        # 6037c0 <_GLOBAL_OFFSET_TABLE_+0xf0>
  400bf6:	68 1b 00 00 00       	pushq  $0x1b
  400bfb:	e9 30 fe ff ff       	jmpq   400a30 <_init+0x18>

Disassembly of section .text:

0000000000400c00 <_start>:
  400c00:	31 ed                	xor    %ebp,%ebp
  400c02:	49 89 d1             	mov    %rdx,%r9
  400c05:	5e                   	pop    %rsi
  400c06:	48 89 e2             	mov    %rsp,%rdx
  400c09:	48 83 e4 f0          	and    $0xfffffffffffffff0,%rsp
  400c0d:	50                   	push   %rax
  400c0e:	54                   	push   %rsp
  400c0f:	49 c7 c0 80 28 40 00 	mov    $0x402880,%r8
  400c16:	48 c7 c1 90 28 40 00 	mov    $0x402890,%rcx
  400c1d:	48 c7 c7 d8 0c 40 00 	mov    $0x400cd8,%rdi
  400c24:	e8 a7 fe ff ff       	callq  400ad0 <__libc_start_main@plt>
  400c29:	f4                   	hlt    
  400c2a:	90                   	nop
  400c2b:	90                   	nop

0000000000400c2c <call_gmon_start>:
  400c2c:	48 83 ec 08          	sub    $0x8,%rsp
  400c30:	48 8b 05 91 2a 20 00 	mov    0x202a91(%rip),%rax        # 6036c8 <_DYNAMIC+0x190>
  400c37:	48 85 c0             	test   %rax,%rax
  400c3a:	74 02                	je     400c3e <call_gmon_start+0x12>
  400c3c:	ff d0                	callq  *%rax
  400c3e:	48 83 c4 08          	add    $0x8,%rsp
  400c42:	c3                   	retq   
  400c43:	90                   	nop
  400c44:	90                   	nop
  400c45:	90                   	nop
  400c46:	90                   	nop
  400c47:	90                   	nop
  400c48:	90                   	nop
  400c49:	90                   	nop
  400c4a:	90                   	nop
  400c4b:	90                   	nop
  400c4c:	90                   	nop
  400c4d:	90                   	nop
  400c4e:	90                   	nop
  400c4f:	90                   	nop

0000000000400c50 <__do_global_dtors_aux>:
  400c50:	55                   	push   %rbp
  400c51:	48 89 e5             	mov    %rsp,%rbp
  400c54:	53                   	push   %rbx
  400c55:	48 83 ec 08          	sub    $0x8,%rsp
  400c59:	80 3d 40 36 20 00 00 	cmpb   $0x0,0x203640(%rip)        # 6042a0 <completed.6145>
  400c60:	75 44                	jne    400ca6 <__do_global_dtors_aux+0x56>
  400c62:	b8 28 35 60 00       	mov    $0x603528,%eax
  400c67:	48 2d 20 35 60 00    	sub    $0x603520,%rax
  400c6d:	48 c1 f8 03          	sar    $0x3,%rax
  400c71:	48 8d 58 ff          	lea    -0x1(%rax),%rbx
  400c75:	48 8b 05 1c 36 20 00 	mov    0x20361c(%rip),%rax        # 604298 <dtor_idx.6147>
  400c7c:	48 39 c3             	cmp    %rax,%rbx
  400c7f:	76 1e                	jbe    400c9f <__do_global_dtors_aux+0x4f>
  400c81:	48 83 c0 01          	add    $0x1,%rax
  400c85:	48 89 05 0c 36 20 00 	mov    %rax,0x20360c(%rip)        # 604298 <dtor_idx.6147>
  400c8c:	ff 14 c5 20 35 60 00 	callq  *0x603520(,%rax,8)
  400c93:	48 8b 05 fe 35 20 00 	mov    0x2035fe(%rip),%rax        # 604298 <dtor_idx.6147>
  400c9a:	48 39 c3             	cmp    %rax,%rbx
  400c9d:	77 e2                	ja     400c81 <__do_global_dtors_aux+0x31>
  400c9f:	c6 05 fa 35 20 00 01 	movb   $0x1,0x2035fa(%rip)        # 6042a0 <completed.6145>
  400ca6:	48 83 c4 08          	add    $0x8,%rsp
  400caa:	5b                   	pop    %rbx
  400cab:	c9                   	leaveq 
  400cac:	c3                   	retq   
  400cad:	0f 1f 00             	nopl   (%rax)

0000000000400cb0 <frame_dummy>:
  400cb0:	55                   	push   %rbp
  400cb1:	48 83 3d 77 28 20 00 	cmpq   $0x0,0x202877(%rip)        # 603530 <__JCR_END__>
  400cb8:	00 
  400cb9:	48 89 e5             	mov    %rsp,%rbp
  400cbc:	74 16                	je     400cd4 <frame_dummy+0x24>
  400cbe:	b8 00 00 00 00       	mov    $0x0,%eax
  400cc3:	48 85 c0             	test   %rax,%rax
  400cc6:	74 0c                	je     400cd4 <frame_dummy+0x24>
  400cc8:	bf 30 35 60 00       	mov    $0x603530,%edi
  400ccd:	49 89 c3             	mov    %rax,%r11
  400cd0:	c9                   	leaveq 
  400cd1:	41 ff e3             	jmpq   *%r11
  400cd4:	c9                   	leaveq 
  400cd5:	c3                   	retq   
  400cd6:	90                   	nop
  400cd7:	90                   	nop

0000000000400cd8 <main>:
  400cd8:	55                   	push   %rbp
  400cd9:	48 89 e5             	mov    %rsp,%rbp
  400cdc:	48 83 ec 20          	sub    $0x20,%rsp
  400ce0:	89 7d ec             	mov    %edi,-0x14(%rbp)
  400ce3:	48 89 75 e0          	mov    %rsi,-0x20(%rbp)
  400ce7:	83 7d ec 01          	cmpl   $0x1,-0x14(%rbp)
  400ceb:	75 10                	jne    400cfd <main+0x25>
  400ced:	48 8b 05 8c 35 20 00 	mov    0x20358c(%rip),%rax        # 604280 <__bss_start>
  400cf4:	48 89 05 ad 35 20 00 	mov    %rax,0x2035ad(%rip)        # 6042a8 <infile>
  400cfb:	eb 79                	jmp    400d76 <main+0x9e>
  400cfd:	83 7d ec 02          	cmpl   $0x2,-0x14(%rbp)
  400d01:	75 53                	jne    400d56 <main+0x7e>
  400d03:	48 8b 45 e0          	mov    -0x20(%rbp),%rax
  400d07:	48 83 c0 08          	add    $0x8,%rax
  400d0b:	48 8b 38             	mov    (%rax),%rdi
  400d0e:	be 78 29 40 00       	mov    $0x402978,%esi
  400d13:	e8 a8 fd ff ff       	callq  400ac0 <fopen@plt>
  400d18:	48 89 05 89 35 20 00 	mov    %rax,0x203589(%rip)        # 6042a8 <infile>
  400d1f:	48 8b 05 82 35 20 00 	mov    0x203582(%rip),%rax        # 6042a8 <infile>
  400d26:	48 85 c0             	test   %rax,%rax
  400d29:	75 4b                	jne    400d76 <main+0x9e>
  400d2b:	48 8b 45 e0          	mov    -0x20(%rbp),%rax
  400d2f:	48 83 c0 08          	add    $0x8,%rax
  400d33:	48 8b 10             	mov    (%rax),%rdx
  400d36:	48 8b 45 e0          	mov    -0x20(%rbp),%rax
  400d3a:	48 8b 30             	mov    (%rax),%rsi
  400d3d:	bf 7a 29 40 00       	mov    $0x40297a,%edi
  400d42:	b8 00 00 00 00       	mov    $0x0,%eax
  400d47:	e8 f4 fc ff ff       	callq  400a40 <printf@plt>
  400d4c:	bf 08 00 00 00       	mov    $0x8,%edi
  400d51:	e8 4a fd ff ff       	callq  400aa0 <exit@plt>
  400d56:	48 8b 45 e0          	mov    -0x20(%rbp),%rax
  400d5a:	48 8b 30             	mov    (%rax),%rsi
  400d5d:	bf 97 29 40 00       	mov    $0x402997,%edi
  400d62:	b8 00 00 00 00       	mov    $0x0,%eax
  400d67:	e8 d4 fc ff ff       	callq  400a40 <printf@plt>
  400d6c:	bf 08 00 00 00       	mov    $0x8,%edi
  400d71:	e8 2a fd ff ff       	callq  400aa0 <exit@plt>
  400d76:	e8 38 07 00 00       	callq  4014b3 <initialize_bomb>
  400d7b:	bf b8 29 40 00       	mov    $0x4029b8,%edi
  400d80:	e8 fb fc ff ff       	callq  400a80 <puts@plt>
  400d85:	bf f8 29 40 00       	mov    $0x4029f8,%edi
  400d8a:	e8 f1 fc ff ff       	callq  400a80 <puts@plt>
  400d8f:	e8 60 08 00 00       	callq  4015f4 <read_line>
  400d94:	48 89 45 f8          	mov    %rax,-0x8(%rbp)
  400d98:	48 8b 7d f8          	mov    -0x8(%rbp),%rdi
  400d9c:	e8 b3 00 00 00       	callq  400e54 <phase_1>
  400da1:	e8 5a 0b 00 00       	callq  401900 <phase_defused>
  400da6:	bf 28 2a 40 00       	mov    $0x402a28,%edi
  400dab:	e8 d0 fc ff ff       	callq  400a80 <puts@plt>
  400db0:	e8 3f 08 00 00       	callq  4015f4 <read_line>
  400db5:	48 89 45 f8          	mov    %rax,-0x8(%rbp)
  400db9:	48 8b 7d f8          	mov    -0x8(%rbp),%rdi
  400dbd:	e8 b7 00 00 00       	callq  400e79 <phase_2>
  400dc2:	e8 39 0b 00 00       	callq  401900 <phase_defused>
  400dc7:	bf 51 2a 40 00       	mov    $0x402a51,%edi
  400dcc:	e8 af fc ff ff       	callq  400a80 <puts@plt>
  400dd1:	e8 1e 08 00 00       	callq  4015f4 <read_line>
  400dd6:	48 89 45 f8          	mov    %rax,-0x8(%rbp)
  400dda:	48 8b 7d f8          	mov    -0x8(%rbp),%rdi
  400dde:	e8 f6 00 00 00       	callq  400ed9 <phase_3>
  400de3:	e8 18 0b 00 00       	callq  401900 <phase_defused>
  400de8:	bf 6f 2a 40 00       	mov    $0x402a6f,%edi
  400ded:	e8 8e fc ff ff       	callq  400a80 <puts@plt>
  400df2:	e8 fd 07 00 00       	callq  4015f4 <read_line>
  400df7:	48 89 45 f8          	mov    %rax,-0x8(%rbp)
  400dfb:	48 8b 7d f8          	mov    -0x8(%rbp),%rdi
  400dff:	e8 e9 01 00 00       	callq  400fed <phase_4>
  400e04:	e8 f7 0a 00 00       	callq  401900 <phase_defused>
  400e09:	bf 80 2a 40 00       	mov    $0x402a80,%edi
  400e0e:	e8 6d fc ff ff       	callq  400a80 <puts@plt>
  400e13:	e8 dc 07 00 00       	callq  4015f4 <read_line>
  400e18:	48 89 45 f8          	mov    %rax,-0x8(%rbp)
  400e1c:	48 8b 7d f8          	mov    -0x8(%rbp),%rdi
  400e20:	e8 31 02 00 00       	callq  401056 <phase_5>
  400e25:	e8 d6 0a 00 00       	callq  401900 <phase_defused>
  400e2a:	bf a4 2a 40 00       	mov    $0x402aa4,%edi
  400e2f:	e8 4c fc ff ff       	callq  400a80 <puts@plt>
  400e34:	e8 bb 07 00 00       	callq  4015f4 <read_line>
  400e39:	48 89 45 f8          	mov    %rax,-0x8(%rbp)
  400e3d:	48 8b 7d f8          	mov    -0x8(%rbp),%rdi
  400e41:	e8 88 02 00 00       	callq  4010ce <phase_6>
  400e46:	e8 b5 0a 00 00       	callq  401900 <phase_defused>
  400e4b:	b8 00 00 00 00       	mov    $0x0,%eax
  400e50:	c9                   	leaveq 
  400e51:	c3                   	retq   
  400e52:	90                   	nop
  400e53:	90                   	nop

0000000000400e54 <phase_1>:
  400e54:	55                   	push   %rbp
  400e55:	48 89 e5             	mov    %rsp,%rbp
  400e58:	48 83 ec 10          	sub    $0x10,%rsp
  400e5c:	48 89 7d f8          	mov    %rdi,-0x8(%rbp)
  400e60:	48 8b 7d f8          	mov    -0x8(%rbp),%rdi
  400e64:	be c8 2a 40 00       	mov    $0x402ac8,%esi
  400e69:	e8 c0 05 00 00       	callq  40142e <strings_not_equal>
  400e6e:	85 c0                	test   %eax,%eax
  400e70:	74 05                	je     400e77 <phase_1+0x23>
  400e72:	e8 53 0a 00 00       	callq  4018ca <explode_bomb>
  400e77:	c9                   	leaveq 
  400e78:	c3                   	retq   

0000000000400e79 <phase_2>:
  400e79:	55                   	push   %rbp
  400e7a:	48 89 e5             	mov    %rsp,%rbp
  400e7d:	48 83 ec 30          	sub    $0x30,%rsp
  400e81:	48 89 7d d8          	mov    %rdi,-0x28(%rbp)
  400e85:	48 8d 75 e0          	lea    -0x20(%rbp),%rsi
  400e89:	48 8b 7d d8          	mov    -0x28(%rbp),%rdi
  400e8d:	e8 f3 04 00 00       	callq  401385 <read_six_numbers>
  400e92:	8b 45 e0             	mov    -0x20(%rbp),%eax
  400e95:	85 c0                	test   %eax,%eax
  400e97:	7f 05                	jg     400e9e <phase_2+0x25>
  400e99:	e8 2c 0a 00 00       	callq  4018ca <explode_bomb>
  400e9e:	c7 45 fc 01 00 00 00 	movl   $0x1,-0x4(%rbp)
  400ea5:	eb 2a                	jmp    400ed1 <phase_2+0x58>
  400ea7:	8b 45 fc             	mov    -0x4(%rbp),%eax
  400eaa:	48 98                	cltq   
  400eac:	8b 4c 85 e0          	mov    -0x20(%rbp,%rax,4),%ecx
  400eb0:	8b 45 fc             	mov    -0x4(%rbp),%eax
  400eb3:	83 e8 01             	sub    $0x1,%eax
  400eb6:	48 98                	cltq   
  400eb8:	8b 54 85 e0          	mov    -0x20(%rbp,%rax,4),%edx
  400ebc:	8b 45 fc             	mov    -0x4(%rbp),%eax
  400ebf:	01 c0                	add    %eax,%eax
  400ec1:	8d 04 02             	lea    (%rdx,%rax,1),%eax
  400ec4:	39 c1                	cmp    %eax,%ecx
  400ec6:	74 05                	je     400ecd <phase_2+0x54>
  400ec8:	e8 fd 09 00 00       	callq  4018ca <explode_bomb>
  400ecd:	83 45 fc 01          	addl   $0x1,-0x4(%rbp)
  400ed1:	83 7d fc 05          	cmpl   $0x5,-0x4(%rbp)
  400ed5:	7e d0                	jle    400ea7 <phase_2+0x2e>
  400ed7:	c9                   	leaveq 
  400ed8:	c3                   	retq   

0000000000400ed9 <phase_3>:
  400ed9:	55                   	push   %rbp
  400eda:	48 89 e5             	mov    %rsp,%rbp
  400edd:	48 83 ec 20          	sub    $0x20,%rsp
  400ee1:	48 89 7d e8          	mov    %rdi,-0x18(%rbp)
  400ee5:	c7 45 f8 00 00 00 00 	movl   $0x0,-0x8(%rbp)
  400eec:	c7 45 fc 00 00 00 00 	movl   $0x0,-0x4(%rbp)
  400ef3:	48 8d 4d f0          	lea    -0x10(%rbp),%rcx
  400ef7:	48 8d 55 f4          	lea    -0xc(%rbp),%rdx
  400efb:	48 8b 7d e8          	mov    -0x18(%rbp),%rdi
  400eff:	be f1 2a 40 00       	mov    $0x402af1,%esi
  400f04:	b8 00 00 00 00       	mov    $0x0,%eax
  400f09:	e8 12 fc ff ff       	callq  400b20 <sscanf@plt>
  400f0e:	89 45 fc             	mov    %eax,-0x4(%rbp)
  400f11:	83 7d fc 01          	cmpl   $0x1,-0x4(%rbp)
  400f15:	7f 05                	jg     400f1c <phase_3+0x43>
  400f17:	e8 ae 09 00 00       	callq  4018ca <explode_bomb>
  400f1c:	8b 45 f4             	mov    -0xc(%rbp),%eax
  400f1f:	89 45 e4             	mov    %eax,-0x1c(%rbp)
  400f22:	83 7d e4 07          	cmpl   $0x7,-0x1c(%rbp)
  400f26:	77 55                	ja     400f7d <phase_3+0xa4>
  400f28:	8b 45 e4             	mov    -0x1c(%rbp),%eax
  400f2b:	48 8b 04 c5 f8 2a 40 	mov    0x402af8(,%rax,8),%rax
  400f32:	00 
  400f33:	ff e0                	jmpq   *%rax
  400f35:	c7 45 f8 3a 00 00 00 	movl   $0x3a,-0x8(%rbp)
  400f3c:	eb 44                	jmp    400f82 <phase_3+0xa9>
  400f3e:	c7 45 f8 4e 03 00 00 	movl   $0x34e,-0x8(%rbp)
  400f45:	eb 3b                	jmp    400f82 <phase_3+0xa9>
  400f47:	c7 45 f8 21 01 00 00 	movl   $0x121,-0x8(%rbp)
  400f4e:	eb 32                	jmp    400f82 <phase_3+0xa9>
  400f50:	c7 45 f8 06 01 00 00 	movl   $0x106,-0x8(%rbp)
  400f57:	eb 29                	jmp    400f82 <phase_3+0xa9>
  400f59:	c7 45 f8 d2 01 00 00 	movl   $0x1d2,-0x8(%rbp)
  400f60:	eb 20                	jmp    400f82 <phase_3+0xa9>
  400f62:	c7 45 f8 d9 00 00 00 	movl   $0xd9,-0x8(%rbp)
  400f69:	eb 17                	jmp    400f82 <phase_3+0xa9>
  400f6b:	c7 45 f8 48 03 00 00 	movl   $0x348,-0x8(%rbp)
  400f72:	eb 0e                	jmp    400f82 <phase_3+0xa9>
  400f74:	c7 45 f8 94 03 00 00 	movl   $0x394,-0x8(%rbp)
  400f7b:	eb 05                	jmp    400f82 <phase_3+0xa9>
  400f7d:	e8 48 09 00 00       	callq  4018ca <explode_bomb>
  400f82:	8b 45 f0             	mov    -0x10(%rbp),%eax
  400f85:	39 45 f8             	cmp    %eax,-0x8(%rbp)
  400f88:	74 05                	je     400f8f <phase_3+0xb6>
  400f8a:	e8 3b 09 00 00       	callq  4018ca <explode_bomb>
  400f8f:	c9                   	leaveq 
  400f90:	c3                   	retq   

0000000000400f91 <func4>:
  400f91:	55                   	push   %rbp
  400f92:	48 89 e5             	mov    %rsp,%rbp
  400f95:	53                   	push   %rbx
  400f96:	48 83 ec 10          	sub    $0x10,%rsp
  400f9a:	89 7d f4             	mov    %edi,-0xc(%rbp)
  400f9d:	89 75 f0             	mov    %esi,-0x10(%rbp)
  400fa0:	83 7d f4 00          	cmpl   $0x0,-0xc(%rbp)
  400fa4:	7f 09                	jg     400faf <func4+0x1e>
  400fa6:	c7 45 ec 00 00 00 00 	movl   $0x0,-0x14(%rbp)
  400fad:	eb 34                	jmp    400fe3 <func4+0x52>
  400faf:	83 7d f4 01          	cmpl   $0x1,-0xc(%rbp)
  400fb3:	75 08                	jne    400fbd <func4+0x2c>
  400fb5:	8b 45 f0             	mov    -0x10(%rbp),%eax
  400fb8:	89 45 ec             	mov    %eax,-0x14(%rbp)
  400fbb:	eb 26                	jmp    400fe3 <func4+0x52>
  400fbd:	8b 7d f4             	mov    -0xc(%rbp),%edi
  400fc0:	83 ef 01             	sub    $0x1,%edi
  400fc3:	8b 75 f0             	mov    -0x10(%rbp),%esi
  400fc6:	e8 c6 ff ff ff       	callq  400f91 <func4>
  400fcb:	89 c3                	mov    %eax,%ebx
  400fcd:	03 5d f0             	add    -0x10(%rbp),%ebx
  400fd0:	8b 7d f4             	mov    -0xc(%rbp),%edi
  400fd3:	83 ef 02             	sub    $0x2,%edi
  400fd6:	8b 75 f0             	mov    -0x10(%rbp),%esi
  400fd9:	e8 b3 ff ff ff       	callq  400f91 <func4>
  400fde:	01 c3                	add    %eax,%ebx
  400fe0:	89 5d ec             	mov    %ebx,-0x14(%rbp)
  400fe3:	8b 45 ec             	mov    -0x14(%rbp),%eax
  400fe6:	48 83 c4 10          	add    $0x10,%rsp
  400fea:	5b                   	pop    %rbx
  400feb:	c9                   	leaveq 
  400fec:	c3                   	retq   

0000000000400fed <phase_4>:
  400fed:	55                   	push   %rbp
  400fee:	48 89 e5             	mov    %rsp,%rbp
  400ff1:	48 83 ec 30          	sub    $0x30,%rsp
  400ff5:	48 89 7d d8          	mov    %rdi,-0x28(%rbp)
  400ff9:	48 8d 4d f0          	lea    -0x10(%rbp),%rcx
  400ffd:	48 8d 55 ec          	lea    -0x14(%rbp),%rdx
  401001:	48 8b 7d d8          	mov    -0x28(%rbp),%rdi
  401005:	be f1 2a 40 00       	mov    $0x402af1,%esi
  40100a:	b8 00 00 00 00       	mov    $0x0,%eax
  40100f:	e8 0c fb ff ff       	callq  400b20 <sscanf@plt>
  401014:	89 45 fc             	mov    %eax,-0x4(%rbp)
  401017:	83 7d fc 02          	cmpl   $0x2,-0x4(%rbp)
  40101b:	75 10                	jne    40102d <phase_4+0x40>
  40101d:	8b 45 f0             	mov    -0x10(%rbp),%eax
  401020:	83 f8 01             	cmp    $0x1,%eax
  401023:	7e 08                	jle    40102d <phase_4+0x40>
  401025:	8b 45 f0             	mov    -0x10(%rbp),%eax
  401028:	83 f8 04             	cmp    $0x4,%eax
  40102b:	7e 05                	jle    401032 <phase_4+0x45>
  40102d:	e8 98 08 00 00       	callq  4018ca <explode_bomb>
  401032:	c7 45 f4 09 00 00 00 	movl   $0x9,-0xc(%rbp)
  401039:	8b 75 f0             	mov    -0x10(%rbp),%esi
  40103c:	8b 7d f4             	mov    -0xc(%rbp),%edi
  40103f:	e8 4d ff ff ff       	callq  400f91 <func4>
  401044:	89 45 f8             	mov    %eax,-0x8(%rbp)
  401047:	8b 45 ec             	mov    -0x14(%rbp),%eax
  40104a:	39 45 f8             	cmp    %eax,-0x8(%rbp)
  40104d:	74 05                	je     401054 <phase_4+0x67>
  40104f:	e8 76 08 00 00       	callq  4018ca <explode_bomb>
  401054:	c9                   	leaveq 
  401055:	c3                   	retq   

0000000000401056 <phase_5>:
  401056:	55                   	push   %rbp
  401057:	48 89 e5             	mov    %rsp,%rbp
  40105a:	48 83 ec 20          	sub    $0x20,%rsp
  40105e:	48 89 7d e8          	mov    %rdi,-0x18(%rbp)
  401062:	48 8b 7d e8          	mov    -0x18(%rbp),%rdi
  401066:	e8 91 03 00 00       	callq  4013fc <string_length>
  40106b:	89 45 fc             	mov    %eax,-0x4(%rbp)
  40106e:	83 7d fc 06          	cmpl   $0x6,-0x4(%rbp)
  401072:	74 05                	je     401079 <phase_5+0x23>
  401074:	e8 51 08 00 00       	callq  4018ca <explode_bomb>
  401079:	c7 45 f8 00 00 00 00 	movl   $0x0,-0x8(%rbp)
  401080:	eb 29                	jmp    4010ab <phase_5+0x55>
  401082:	8b 4d f8             	mov    -0x8(%rbp),%ecx
  401085:	8b 45 f8             	mov    -0x8(%rbp),%eax
  401088:	48 98                	cltq   
  40108a:	48 03 45 e8          	add    -0x18(%rbp),%rax
  40108e:	0f b6 00             	movzbl (%rax),%eax
  401091:	0f be c0             	movsbl %al,%eax
  401094:	83 e0 0f             	and    $0xf,%eax
  401097:	48 98                	cltq   
  401099:	0f b6 90 20 3c 60 00 	movzbl 0x603c20(%rax),%edx
  4010a0:	48 63 c1             	movslq %ecx,%rax
  4010a3:	88 54 05 f0          	mov    %dl,-0x10(%rbp,%rax,1)
  4010a7:	83 45 f8 01          	addl   $0x1,-0x8(%rbp)
  4010ab:	83 7d f8 05          	cmpl   $0x5,-0x8(%rbp)
  4010af:	7e d1                	jle    401082 <phase_5+0x2c>
  4010b1:	c6 45 f6 00          	movb   $0x0,-0xa(%rbp)
  4010b5:	48 8d 7d f0          	lea    -0x10(%rbp),%rdi
  4010b9:	be 38 2b 40 00       	mov    $0x402b38,%esi
  4010be:	e8 6b 03 00 00       	callq  40142e <strings_not_equal>
  4010c3:	85 c0                	test   %eax,%eax
  4010c5:	74 05                	je     4010cc <phase_5+0x76>
  4010c7:	e8 fe 07 00 00       	callq  4018ca <explode_bomb>
  4010cc:	c9                   	leaveq 
  4010cd:	c3                   	retq   

00000000004010ce <phase_6>:
  4010ce:	55                   	push   %rbp
  4010cf:	48 89 e5             	mov    %rsp,%rbp
  4010d2:	48 83 ec 70          	sub    $0x70,%rsp
  4010d6:	48 89 7d 98          	mov    %rdi,-0x68(%rbp)
  4010da:	48 c7 45 e8 80 3c 60 	movq   $0x603c80,-0x18(%rbp)
  4010e1:	00 
  4010e2:	48 8d 75 d0          	lea    -0x30(%rbp),%rsi
  4010e6:	48 8b 7d 98          	mov    -0x68(%rbp),%rdi
  4010ea:	e8 96 02 00 00       	callq  401385 <read_six_numbers>
  4010ef:	c7 45 f8 00 00 00 00 	movl   $0x0,-0x8(%rbp)
  4010f6:	eb 54                	jmp    40114c <phase_6+0x7e>
  4010f8:	8b 45 f8             	mov    -0x8(%rbp),%eax
  4010fb:	48 98                	cltq   
  4010fd:	8b 44 85 d0          	mov    -0x30(%rbp,%rax,4),%eax
  401101:	85 c0                	test   %eax,%eax
  401103:	7e 0e                	jle    401113 <phase_6+0x45>
  401105:	8b 45 f8             	mov    -0x8(%rbp),%eax
  401108:	48 98                	cltq   
  40110a:	8b 44 85 d0          	mov    -0x30(%rbp,%rax,4),%eax
  40110e:	83 f8 06             	cmp    $0x6,%eax
  401111:	7e 05                	jle    401118 <phase_6+0x4a>
  401113:	e8 b2 07 00 00       	callq  4018ca <explode_bomb>
  401118:	8b 45 f8             	mov    -0x8(%rbp),%eax
  40111b:	83 c0 01             	add    $0x1,%eax
  40111e:	89 45 fc             	mov    %eax,-0x4(%rbp)
  401121:	eb 1f                	jmp    401142 <phase_6+0x74>
  401123:	8b 45 f8             	mov    -0x8(%rbp),%eax
  401126:	48 98                	cltq   
  401128:	8b 54 85 d0          	mov    -0x30(%rbp,%rax,4),%edx
  40112c:	8b 45 fc             	mov    -0x4(%rbp),%eax
  40112f:	48 98                	cltq   
  401131:	8b 44 85 d0          	mov    -0x30(%rbp,%rax,4),%eax
  401135:	39 c2                	cmp    %eax,%edx
  401137:	75 05                	jne    40113e <phase_6+0x70>
  401139:	e8 8c 07 00 00       	callq  4018ca <explode_bomb>
  40113e:	83 45 fc 01          	addl   $0x1,-0x4(%rbp)
  401142:	83 7d fc 05          	cmpl   $0x5,-0x4(%rbp)
  401146:	7e db                	jle    401123 <phase_6+0x55>
  401148:	83 45 f8 01          	addl   $0x1,-0x8(%rbp)
  40114c:	83 7d f8 05          	cmpl   $0x5,-0x8(%rbp)
  401150:	7e a6                	jle    4010f8 <phase_6+0x2a>
  401152:	c7 45 f8 00 00 00 00 	movl   $0x0,-0x8(%rbp)
  401159:	eb 42                	jmp    40119d <phase_6+0xcf>
  40115b:	48 8b 45 e8          	mov    -0x18(%rbp),%rax
  40115f:	48 89 45 f0          	mov    %rax,-0x10(%rbp)
  401163:	c7 45 fc 01 00 00 00 	movl   $0x1,-0x4(%rbp)
  40116a:	eb 10                	jmp    40117c <phase_6+0xae>
  40116c:	48 8b 45 f0          	mov    -0x10(%rbp),%rax
  401170:	48 8b 40 08          	mov    0x8(%rax),%rax
  401174:	48 89 45 f0          	mov    %rax,-0x10(%rbp)
  401178:	83 45 fc 01          	addl   $0x1,-0x4(%rbp)
  40117c:	8b 45 f8             	mov    -0x8(%rbp),%eax
  40117f:	48 98                	cltq   
  401181:	8b 44 85 d0          	mov    -0x30(%rbp,%rax,4),%eax
  401185:	3b 45 fc             	cmp    -0x4(%rbp),%eax
  401188:	7f e2                	jg     40116c <phase_6+0x9e>
  40118a:	8b 45 f8             	mov    -0x8(%rbp),%eax
  40118d:	48 63 d0             	movslq %eax,%rdx
  401190:	48 8b 45 f0          	mov    -0x10(%rbp),%rax
  401194:	48 89 44 d5 a0       	mov    %rax,-0x60(%rbp,%rdx,8)
  401199:	83 45 f8 01          	addl   $0x1,-0x8(%rbp)
  40119d:	83 7d f8 05          	cmpl   $0x5,-0x8(%rbp)
  4011a1:	7e b8                	jle    40115b <phase_6+0x8d>
  4011a3:	48 8b 45 a0          	mov    -0x60(%rbp),%rax
  4011a7:	48 89 45 e8          	mov    %rax,-0x18(%rbp)
  4011ab:	48 8b 45 e8          	mov    -0x18(%rbp),%rax
  4011af:	48 89 45 f0          	mov    %rax,-0x10(%rbp)
  4011b3:	c7 45 f8 01 00 00 00 	movl   $0x1,-0x8(%rbp)
  4011ba:	eb 22                	jmp    4011de <phase_6+0x110>
  4011bc:	8b 45 f8             	mov    -0x8(%rbp),%eax
  4011bf:	48 98                	cltq   
  4011c1:	48 8b 54 c5 a0       	mov    -0x60(%rbp,%rax,8),%rdx
  4011c6:	48 8b 45 f0          	mov    -0x10(%rbp),%rax
  4011ca:	48 89 50 08          	mov    %rdx,0x8(%rax)
  4011ce:	48 8b 45 f0          	mov    -0x10(%rbp),%rax
  4011d2:	48 8b 40 08          	mov    0x8(%rax),%rax
  4011d6:	48 89 45 f0          	mov    %rax,-0x10(%rbp)
  4011da:	83 45 f8 01          	addl   $0x1,-0x8(%rbp)
  4011de:	83 7d f8 05          	cmpl   $0x5,-0x8(%rbp)
  4011e2:	7e d8                	jle    4011bc <phase_6+0xee>
  4011e4:	48 8b 45 f0          	mov    -0x10(%rbp),%rax
  4011e8:	48 c7 40 08 00 00 00 	movq   $0x0,0x8(%rax)
  4011ef:	00 
  4011f0:	48 8b 45 e8          	mov    -0x18(%rbp),%rax
  4011f4:	48 89 45 f0          	mov    %rax,-0x10(%rbp)
  4011f8:	c7 45 f8 00 00 00 00 	movl   $0x0,-0x8(%rbp)
  4011ff:	eb 29                	jmp    40122a <phase_6+0x15c>
  401201:	48 8b 45 f0          	mov    -0x10(%rbp),%rax
  401205:	8b 10                	mov    (%rax),%edx
  401207:	48 8b 45 f0          	mov    -0x10(%rbp),%rax
  40120b:	48 8b 40 08          	mov    0x8(%rax),%rax
  40120f:	8b 00                	mov    (%rax),%eax
  401211:	39 c2                	cmp    %eax,%edx
  401213:	7e 05                	jle    40121a <phase_6+0x14c>
  401215:	e8 b0 06 00 00       	callq  4018ca <explode_bomb>
  40121a:	48 8b 45 f0          	mov    -0x10(%rbp),%rax
  40121e:	48 8b 40 08          	mov    0x8(%rax),%rax
  401222:	48 89 45 f0          	mov    %rax,-0x10(%rbp)
  401226:	83 45 f8 01          	addl   $0x1,-0x8(%rbp)
  40122a:	83 7d f8 04          	cmpl   $0x4,-0x8(%rbp)
  40122e:	7e d1                	jle    401201 <phase_6+0x133>
  401230:	c9                   	leaveq 
  401231:	c3                   	retq   

0000000000401232 <fun7>:
  401232:	55                   	push   %rbp
  401233:	48 89 e5             	mov    %rsp,%rbp
  401236:	48 83 ec 10          	sub    $0x10,%rsp
  40123a:	48 89 7d f8          	mov    %rdi,-0x8(%rbp)
  40123e:	89 75 f4             	mov    %esi,-0xc(%rbp)
  401241:	48 83 7d f8 00       	cmpq   $0x0,-0x8(%rbp)
  401246:	75 09                	jne    401251 <fun7+0x1f>
  401248:	c7 45 f0 ff ff ff ff 	movl   $0xffffffff,-0x10(%rbp)
  40124f:	eb 4e                	jmp    40129f <fun7+0x6d>
  401251:	48 8b 45 f8          	mov    -0x8(%rbp),%rax
  401255:	8b 00                	mov    (%rax),%eax
  401257:	3b 45 f4             	cmp    -0xc(%rbp),%eax
  40125a:	7e 17                	jle    401273 <fun7+0x41>
  40125c:	48 8b 45 f8          	mov    -0x8(%rbp),%rax
  401260:	48 8b 78 08          	mov    0x8(%rax),%rdi
  401264:	8b 75 f4             	mov    -0xc(%rbp),%esi
  401267:	e8 c6 ff ff ff       	callq  401232 <fun7>
  40126c:	01 c0                	add    %eax,%eax
  40126e:	89 45 f0             	mov    %eax,-0x10(%rbp)
  401271:	eb 2c                	jmp    40129f <fun7+0x6d>
  401273:	48 8b 45 f8          	mov    -0x8(%rbp),%rax
  401277:	8b 00                	mov    (%rax),%eax
  401279:	3b 45 f4             	cmp    -0xc(%rbp),%eax
  40127c:	75 09                	jne    401287 <fun7+0x55>
  40127e:	c7 45 f0 00 00 00 00 	movl   $0x0,-0x10(%rbp)
  401285:	eb 18                	jmp    40129f <fun7+0x6d>
  401287:	48 8b 45 f8          	mov    -0x8(%rbp),%rax
  40128b:	48 8b 78 10          	mov    0x10(%rax),%rdi
  40128f:	8b 75 f4             	mov    -0xc(%rbp),%esi
  401292:	e8 9b ff ff ff       	callq  401232 <fun7>
  401297:	01 c0                	add    %eax,%eax
  401299:	83 c0 01             	add    $0x1,%eax
  40129c:	89 45 f0             	mov    %eax,-0x10(%rbp)
  40129f:	8b 45 f0             	mov    -0x10(%rbp),%eax
  4012a2:	c9                   	leaveq 
  4012a3:	c3                   	retq   

00000000004012a4 <secret_phase>:
  4012a4:	55                   	push   %rbp
  4012a5:	48 89 e5             	mov    %rsp,%rbp
  4012a8:	48 83 ec 10          	sub    $0x10,%rsp
  4012ac:	e8 43 03 00 00       	callq  4015f4 <read_line>
  4012b1:	48 89 45 f0          	mov    %rax,-0x10(%rbp)
  4012b5:	48 8b 7d f0          	mov    -0x10(%rbp),%rdi
  4012b9:	e8 82 f8 ff ff       	callq  400b40 <atoi@plt>
  4012be:	89 45 f8             	mov    %eax,-0x8(%rbp)
  4012c1:	83 7d f8 00          	cmpl   $0x0,-0x8(%rbp)
  4012c5:	7e 09                	jle    4012d0 <secret_phase+0x2c>
  4012c7:	81 7d f8 e9 03 00 00 	cmpl   $0x3e9,-0x8(%rbp)
  4012ce:	7e 05                	jle    4012d5 <secret_phase+0x31>
  4012d0:	e8 f5 05 00 00       	callq  4018ca <explode_bomb>
  4012d5:	8b 75 f8             	mov    -0x8(%rbp),%esi
  4012d8:	bf 50 3e 60 00       	mov    $0x603e50,%edi
  4012dd:	e8 50 ff ff ff       	callq  401232 <fun7>
  4012e2:	89 45 fc             	mov    %eax,-0x4(%rbp)
  4012e5:	83 7d fc 04          	cmpl   $0x4,-0x4(%rbp)
  4012e9:	74 05                	je     4012f0 <secret_phase+0x4c>
  4012eb:	e8 da 05 00 00       	callq  4018ca <explode_bomb>
  4012f0:	bf 40 2b 40 00       	mov    $0x402b40,%edi
  4012f5:	e8 86 f7 ff ff       	callq  400a80 <puts@plt>
  4012fa:	e8 01 06 00 00       	callq  401900 <phase_defused>
  4012ff:	c9                   	leaveq 
  401300:	c3                   	retq   
  401301:	90                   	nop
  401302:	90                   	nop
  401303:	90                   	nop

0000000000401304 <sig_handler>:
  401304:	55                   	push   %rbp
  401305:	48 89 e5             	mov    %rsp,%rbp
  401308:	48 83 ec 10          	sub    $0x10,%rsp
  40130c:	89 7d fc             	mov    %edi,-0x4(%rbp)
  40130f:	bf b8 2b 40 00       	mov    $0x402bb8,%edi
  401314:	e8 67 f7 ff ff       	callq  400a80 <puts@plt>
  401319:	bf 03 00 00 00       	mov    $0x3,%edi
  40131e:	e8 0d f8 ff ff       	callq  400b30 <sleep@plt>
  401323:	bf f0 2b 40 00       	mov    $0x402bf0,%edi
  401328:	b8 00 00 00 00       	mov    $0x0,%eax
  40132d:	e8 0e f7 ff ff       	callq  400a40 <printf@plt>
  401332:	48 8b 3d 57 2f 20 00 	mov    0x202f57(%rip),%rdi        # 604290 <stdout@@GLIBC_2.2.5>
  401339:	e8 b2 f8 ff ff       	callq  400bf0 <fflush@plt>
  40133e:	bf 01 00 00 00       	mov    $0x1,%edi
  401343:	e8 e8 f7 ff ff       	callq  400b30 <sleep@plt>
  401348:	bf f8 2b 40 00       	mov    $0x402bf8,%edi
  40134d:	e8 2e f7 ff ff       	callq  400a80 <puts@plt>
  401352:	bf 10 00 00 00       	mov    $0x10,%edi
  401357:	e8 44 f7 ff ff       	callq  400aa0 <exit@plt>

000000000040135c <invalid_phase>:
  40135c:	55                   	push   %rbp
  40135d:	48 89 e5             	mov    %rsp,%rbp
  401360:	48 83 ec 10          	sub    $0x10,%rsp
  401364:	48 89 7d f8          	mov    %rdi,-0x8(%rbp)
  401368:	48 8b 75 f8          	mov    -0x8(%rbp),%rsi
  40136c:	bf 00 2c 40 00       	mov    $0x402c00,%edi
  401371:	b8 00 00 00 00       	mov    $0x0,%eax
  401376:	e8 c5 f6 ff ff       	callq  400a40 <printf@plt>
  40137b:	bf 08 00 00 00       	mov    $0x8,%edi
  401380:	e8 1b f7 ff ff       	callq  400aa0 <exit@plt>

0000000000401385 <read_six_numbers>:
  401385:	55                   	push   %rbp
  401386:	48 89 e5             	mov    %rsp,%rbp
  401389:	48 83 ec 30          	sub    $0x30,%rsp
  40138d:	48 89 7d e8          	mov    %rdi,-0x18(%rbp)
  401391:	48 89 75 e0          	mov    %rsi,-0x20(%rbp)
  401395:	48 8b 45 e0          	mov    -0x20(%rbp),%rax
  401399:	48 83 c0 14          	add    $0x14,%rax
  40139d:	48 8b 55 e0          	mov    -0x20(%rbp),%rdx
  4013a1:	48 83 c2 10          	add    $0x10,%rdx
  4013a5:	48 8b 4d e0          	mov    -0x20(%rbp),%rcx
  4013a9:	48 83 c1 0c          	add    $0xc,%rcx
  4013ad:	48 8b 75 e0          	mov    -0x20(%rbp),%rsi
  4013b1:	48 83 c6 08          	add    $0x8,%rsi
  4013b5:	48 8b 7d e0          	mov    -0x20(%rbp),%rdi
  4013b9:	48 83 c7 04          	add    $0x4,%rdi
  4013bd:	4c 8b 55 e0          	mov    -0x20(%rbp),%r10
  4013c1:	4c 8b 5d e8          	mov    -0x18(%rbp),%r11
  4013c5:	48 89 44 24 08       	mov    %rax,0x8(%rsp)
  4013ca:	48 89 14 24          	mov    %rdx,(%rsp)
  4013ce:	49 89 c9             	mov    %rcx,%r9
  4013d1:	49 89 f0             	mov    %rsi,%r8
  4013d4:	48 89 f9             	mov    %rdi,%rcx
  4013d7:	4c 89 d2             	mov    %r10,%rdx
  4013da:	be 11 2c 40 00       	mov    $0x402c11,%esi
  4013df:	4c 89 df             	mov    %r11,%rdi
  4013e2:	b8 00 00 00 00       	mov    $0x0,%eax
  4013e7:	e8 34 f7 ff ff       	callq  400b20 <sscanf@plt>
  4013ec:	89 45 fc             	mov    %eax,-0x4(%rbp)
  4013ef:	83 7d fc 05          	cmpl   $0x5,-0x4(%rbp)
  4013f3:	7f 05                	jg     4013fa <read_six_numbers+0x75>
  4013f5:	e8 d0 04 00 00       	callq  4018ca <explode_bomb>
  4013fa:	c9                   	leaveq 
  4013fb:	c3                   	retq   

00000000004013fc <string_length>:
  4013fc:	55                   	push   %rbp
  4013fd:	48 89 e5             	mov    %rsp,%rbp
  401400:	48 89 7d e8          	mov    %rdi,-0x18(%rbp)
  401404:	48 8b 45 e8          	mov    -0x18(%rbp),%rax
  401408:	48 89 45 f8          	mov    %rax,-0x8(%rbp)
  40140c:	c7 45 f4 00 00 00 00 	movl   $0x0,-0xc(%rbp)
  401413:	eb 09                	jmp    40141e <string_length+0x22>
  401415:	48 83 45 f8 01       	addq   $0x1,-0x8(%rbp)
  40141a:	83 45 f4 01          	addl   $0x1,-0xc(%rbp)
  40141e:	48 8b 45 f8          	mov    -0x8(%rbp),%rax
  401422:	0f b6 00             	movzbl (%rax),%eax
  401425:	84 c0                	test   %al,%al
  401427:	75 ec                	jne    401415 <string_length+0x19>
  401429:	8b 45 f4             	mov    -0xc(%rbp),%eax
  40142c:	c9                   	leaveq 
  40142d:	c3                   	retq   

000000000040142e <strings_not_equal>:
  40142e:	55                   	push   %rbp
  40142f:	48 89 e5             	mov    %rsp,%rbp
  401432:	53                   	push   %rbx
  401433:	48 83 ec 28          	sub    $0x28,%rsp
  401437:	48 89 7d e0          	mov    %rdi,-0x20(%rbp)
  40143b:	48 89 75 d8          	mov    %rsi,-0x28(%rbp)
  40143f:	48 8b 7d e0          	mov    -0x20(%rbp),%rdi
  401443:	e8 b4 ff ff ff       	callq  4013fc <string_length>
  401448:	89 c3                	mov    %eax,%ebx
  40144a:	48 8b 7d d8          	mov    -0x28(%rbp),%rdi
  40144e:	e8 a9 ff ff ff       	callq  4013fc <string_length>
  401453:	39 c3                	cmp    %eax,%ebx
  401455:	74 09                	je     401460 <strings_not_equal+0x32>
  401457:	c7 45 d4 01 00 00 00 	movl   $0x1,-0x2c(%rbp)
  40145e:	eb 49                	jmp    4014a9 <strings_not_equal+0x7b>
  401460:	48 8b 45 e0          	mov    -0x20(%rbp),%rax
  401464:	48 89 45 e8          	mov    %rax,-0x18(%rbp)
  401468:	48 8b 45 d8          	mov    -0x28(%rbp),%rax
  40146c:	48 89 45 f0          	mov    %rax,-0x10(%rbp)
  401470:	eb 25                	jmp    401497 <strings_not_equal+0x69>
  401472:	48 8b 45 e8          	mov    -0x18(%rbp),%rax
  401476:	0f b6 10             	movzbl (%rax),%edx
  401479:	48 8b 45 f0          	mov    -0x10(%rbp),%rax
  40147d:	0f b6 00             	movzbl (%rax),%eax
  401480:	38 c2                	cmp    %al,%dl
  401482:	74 09                	je     40148d <strings_not_equal+0x5f>
  401484:	c7 45 d4 01 00 00 00 	movl   $0x1,-0x2c(%rbp)
  40148b:	eb 1c                	jmp    4014a9 <strings_not_equal+0x7b>
  40148d:	48 83 45 e8 01       	addq   $0x1,-0x18(%rbp)
  401492:	48 83 45 f0 01       	addq   $0x1,-0x10(%rbp)
  401497:	48 8b 45 e8          	mov    -0x18(%rbp),%rax
  40149b:	0f b6 00             	movzbl (%rax),%eax
  40149e:	84 c0                	test   %al,%al
  4014a0:	75 d0                	jne    401472 <strings_not_equal+0x44>
  4014a2:	c7 45 d4 00 00 00 00 	movl   $0x0,-0x2c(%rbp)
  4014a9:	8b 45 d4             	mov    -0x2c(%rbp),%eax
  4014ac:	48 83 c4 28          	add    $0x28,%rsp
  4014b0:	5b                   	pop    %rbx
  4014b1:	c9                   	leaveq 
  4014b2:	c3                   	retq   

00000000004014b3 <initialize_bomb>:
  4014b3:	55                   	push   %rbp
  4014b4:	48 89 e5             	mov    %rsp,%rbp
  4014b7:	48 81 ec 50 20 00 00 	sub    $0x2050,%rsp
  4014be:	c7 45 fc 00 00 00 00 	movl   $0x0,-0x4(%rbp)
  4014c5:	be 04 13 40 00       	mov    $0x401304,%esi
  4014ca:	bf 02 00 00 00       	mov    $0x2,%edi
  4014cf:	e8 9c f6 ff ff       	callq  400b70 <signal@plt>
  4014d4:	48 8d 7d b0          	lea    -0x50(%rbp),%rdi
  4014d8:	be 40 00 00 00       	mov    $0x40,%esi
  4014dd:	e8 7e f6 ff ff       	callq  400b60 <gethostname@plt>
  4014e2:	85 c0                	test   %eax,%eax
  4014e4:	74 14                	je     4014fa <initialize_bomb+0x47>
  4014e6:	bf 28 2c 40 00       	mov    $0x402c28,%edi
  4014eb:	e8 90 f5 ff ff       	callq  400a80 <puts@plt>
  4014f0:	bf 08 00 00 00       	mov    $0x8,%edi
  4014f5:	e8 a6 f5 ff ff       	callq  400aa0 <exit@plt>
  4014fa:	c7 45 fc 01 00 00 00 	movl   $0x1,-0x4(%rbp)
  401501:	48 8d bd b0 df ff ff 	lea    -0x2050(%rbp),%rdi
  401508:	e8 df 10 00 00       	callq  4025ec <init_driver>
  40150d:	85 c0                	test   %eax,%eax
  40150f:	79 20                	jns    401531 <initialize_bomb+0x7e>
  401511:	48 8d b5 b0 df ff ff 	lea    -0x2050(%rbp),%rsi
  401518:	bf 5d 2c 40 00       	mov    $0x402c5d,%edi
  40151d:	b8 00 00 00 00       	mov    $0x0,%eax
  401522:	e8 19 f5 ff ff       	callq  400a40 <printf@plt>
  401527:	bf 08 00 00 00       	mov    $0x8,%edi
  40152c:	e8 6f f5 ff ff       	callq  400aa0 <exit@plt>
  401531:	c9                   	leaveq 
  401532:	c3                   	retq   

0000000000401533 <initialize_bomb_solve>:
  401533:	55                   	push   %rbp
  401534:	48 89 e5             	mov    %rsp,%rbp
  401537:	c9                   	leaveq 
  401538:	c3                   	retq   

0000000000401539 <blank_line>:
  401539:	55                   	push   %rbp
  40153a:	48 89 e5             	mov    %rsp,%rbp
  40153d:	48 83 ec 10          	sub    $0x10,%rsp
  401541:	48 89 7d f8          	mov    %rdi,-0x8(%rbp)
  401545:	eb 3c                	jmp    401583 <blank_line+0x4a>
  401547:	e8 b4 f5 ff ff       	callq  400b00 <__ctype_b_loc@plt>
  40154c:	48 8b 10             	mov    (%rax),%rdx
  40154f:	48 8b 45 f8          	mov    -0x8(%rbp),%rax
  401553:	0f b6 00             	movzbl (%rax),%eax
  401556:	48 0f be c0          	movsbq %al,%rax
  40155a:	48 01 c0             	add    %rax,%rax
  40155d:	48 8d 04 02          	lea    (%rdx,%rax,1),%rax
  401561:	0f b7 00             	movzwl (%rax),%eax
  401564:	0f b7 c0             	movzwl %ax,%eax
  401567:	25 00 20 00 00       	and    $0x2000,%eax
  40156c:	85 c0                	test   %eax,%eax
  40156e:	0f 94 c0             	sete   %al
  401571:	48 83 45 f8 01       	addq   $0x1,-0x8(%rbp)
  401576:	84 c0                	test   %al,%al
  401578:	74 09                	je     401583 <blank_line+0x4a>
  40157a:	c7 45 f4 00 00 00 00 	movl   $0x0,-0xc(%rbp)
  401581:	eb 12                	jmp    401595 <blank_line+0x5c>
  401583:	48 8b 45 f8          	mov    -0x8(%rbp),%rax
  401587:	0f b6 00             	movzbl (%rax),%eax
  40158a:	84 c0                	test   %al,%al
  40158c:	75 b9                	jne    401547 <blank_line+0xe>
  40158e:	c7 45 f4 01 00 00 00 	movl   $0x1,-0xc(%rbp)
  401595:	8b 45 f4             	mov    -0xc(%rbp),%eax
  401598:	c9                   	leaveq 
  401599:	c3                   	retq   

000000000040159a <skip>:
  40159a:	55                   	push   %rbp
  40159b:	48 89 e5             	mov    %rsp,%rbp
  40159e:	48 83 ec 10          	sub    $0x10,%rsp
  4015a2:	48 8b 0d ff 2c 20 00 	mov    0x202cff(%rip),%rcx        # 6042a8 <infile>
  4015a9:	8b 05 f5 2c 20 00    	mov    0x202cf5(%rip),%eax        # 6042a4 <num_input_strings>
  4015af:	48 63 d0             	movslq %eax,%rdx
  4015b2:	48 89 d0             	mov    %rdx,%rax
  4015b5:	48 c1 e0 02          	shl    $0x2,%rax
  4015b9:	48 01 d0             	add    %rdx,%rax
  4015bc:	48 c1 e0 04          	shl    $0x4,%rax
  4015c0:	48 05 c0 42 60 00    	add    $0x6042c0,%rax
  4015c6:	48 89 c7             	mov    %rax,%rdi
  4015c9:	48 89 ca             	mov    %rcx,%rdx
  4015cc:	be 50 00 00 00       	mov    $0x50,%esi
  4015d1:	e8 0a f5 ff ff       	callq  400ae0 <fgets@plt>
  4015d6:	48 89 45 f8          	mov    %rax,-0x8(%rbp)
  4015da:	48 83 7d f8 00       	cmpq   $0x0,-0x8(%rbp)
  4015df:	74 0d                	je     4015ee <skip+0x54>
  4015e1:	48 8b 7d f8          	mov    -0x8(%rbp),%rdi
  4015e5:	e8 4f ff ff ff       	callq  401539 <blank_line>
  4015ea:	85 c0                	test   %eax,%eax
  4015ec:	75 b4                	jne    4015a2 <skip+0x8>
  4015ee:	48 8b 45 f8          	mov    -0x8(%rbp),%rax
  4015f2:	c9                   	leaveq 
  4015f3:	c3                   	retq   

00000000004015f4 <read_line>:
  4015f4:	55                   	push   %rbp
  4015f5:	48 89 e5             	mov    %rsp,%rbp
  4015f8:	48 83 ec 20          	sub    $0x20,%rsp
  4015fc:	b8 00 00 00 00       	mov    $0x0,%eax
  401601:	e8 94 ff ff ff       	callq  40159a <skip>
  401606:	48 89 45 f8          	mov    %rax,-0x8(%rbp)
  40160a:	48 83 7d f8 00       	cmpq   $0x0,-0x8(%rbp)
  40160f:	75 77                	jne    401688 <read_line+0x94>
  401611:	48 8b 15 90 2c 20 00 	mov    0x202c90(%rip),%rdx        # 6042a8 <infile>
  401618:	48 8b 05 61 2c 20 00 	mov    0x202c61(%rip),%rax        # 604280 <__bss_start>
  40161f:	48 39 c2             	cmp    %rax,%rdx
  401622:	75 14                	jne    401638 <read_line+0x44>
  401624:	bf 77 2c 40 00       	mov    $0x402c77,%edi
  401629:	e8 52 f4 ff ff       	callq  400a80 <puts@plt>
  40162e:	bf 08 00 00 00       	mov    $0x8,%edi
  401633:	e8 68 f4 ff ff       	callq  400aa0 <exit@plt>
  401638:	bf 95 2c 40 00       	mov    $0x402c95,%edi
  40163d:	e8 4e f5 ff ff       	callq  400b90 <getenv@plt>
  401642:	48 85 c0             	test   %rax,%rax
  401645:	74 0a                	je     401651 <read_line+0x5d>
  401647:	bf 00 00 00 00       	mov    $0x0,%edi
  40164c:	e8 4f f4 ff ff       	callq  400aa0 <exit@plt>
  401651:	48 8b 05 28 2c 20 00 	mov    0x202c28(%rip),%rax        # 604280 <__bss_start>
  401658:	48 89 05 49 2c 20 00 	mov    %rax,0x202c49(%rip)        # 6042a8 <infile>
  40165f:	b8 00 00 00 00       	mov    $0x0,%eax
  401664:	e8 31 ff ff ff       	callq  40159a <skip>
  401669:	48 89 45 f8          	mov    %rax,-0x8(%rbp)
  40166d:	48 83 7d f8 00       	cmpq   $0x0,-0x8(%rbp)
  401672:	75 14                	jne    401688 <read_line+0x94>
  401674:	bf 77 2c 40 00       	mov    $0x402c77,%edi
  401679:	e8 02 f4 ff ff       	callq  400a80 <puts@plt>
  40167e:	bf 00 00 00 00       	mov    $0x0,%edi
  401683:	e8 18 f4 ff ff       	callq  400aa0 <exit@plt>
  401688:	8b 05 16 2c 20 00    	mov    0x202c16(%rip),%eax        # 6042a4 <num_input_strings>
  40168e:	48 63 d0             	movslq %eax,%rdx
  401691:	48 89 d0             	mov    %rdx,%rax
  401694:	48 c1 e0 02          	shl    $0x2,%rax
  401698:	48 01 d0             	add    %rdx,%rax
  40169b:	48 c1 e0 04          	shl    $0x4,%rax
  40169f:	48 05 c0 42 60 00    	add    $0x6042c0,%rax
  4016a5:	48 c7 c1 ff ff ff ff 	mov    $0xffffffffffffffff,%rcx
  4016ac:	48 89 45 e8          	mov    %rax,-0x18(%rbp)
  4016b0:	b8 00 00 00 00       	mov    $0x0,%eax
  4016b5:	fc                   	cld    
  4016b6:	48 8b 7d e8          	mov    -0x18(%rbp),%rdi
  4016ba:	f2 ae                	repnz scas %es:(%rdi),%al
  4016bc:	48 89 c8             	mov    %rcx,%rax
  4016bf:	48 f7 d0             	not    %rax
  4016c2:	48 83 e8 01          	sub    $0x1,%rax
  4016c6:	89 45 f4             	mov    %eax,-0xc(%rbp)
  4016c9:	83 7d f4 4e          	cmpl   $0x4e,-0xc(%rbp)
  4016cd:	7e 53                	jle    401722 <read_line+0x12e>
  4016cf:	bf a0 2c 40 00       	mov    $0x402ca0,%edi
  4016d4:	e8 a7 f3 ff ff       	callq  400a80 <puts@plt>
  4016d9:	8b 0d c5 2b 20 00    	mov    0x202bc5(%rip),%ecx        # 6042a4 <num_input_strings>
  4016df:	48 63 d1             	movslq %ecx,%rdx
  4016e2:	48 89 d0             	mov    %rdx,%rax
  4016e5:	48 c1 e0 02          	shl    $0x2,%rax
  4016e9:	48 01 d0             	add    %rdx,%rax
  4016ec:	48 c1 e0 04          	shl    $0x4,%rax
  4016f0:	48 05 c0 42 60 00    	add    $0x6042c0,%rax
  4016f6:	48 89 c2             	mov    %rax,%rdx
  4016f9:	8d 41 01             	lea    0x1(%rcx),%eax
  4016fc:	89 05 a2 2b 20 00    	mov    %eax,0x202ba2(%rip)        # 6042a4 <num_input_strings>
  401702:	c7 02 2a 2a 2a 74    	movl   $0x742a2a2a,(%rdx)
  401708:	c7 42 04 72 75 6e 63 	movl   $0x636e7572,0x4(%rdx)
  40170f:	c7 42 08 61 74 65 64 	movl   $0x64657461,0x8(%rdx)
  401716:	c7 42 0c 2a 2a 2a 00 	movl   $0x2a2a2a,0xc(%rdx)
  40171d:	e8 a8 01 00 00       	callq  4018ca <explode_bomb>
  401722:	8b 15 7c 2b 20 00    	mov    0x202b7c(%rip),%edx        # 6042a4 <num_input_strings>
  401728:	8b 45 f4             	mov    -0xc(%rbp),%eax
  40172b:	83 e8 01             	sub    $0x1,%eax
  40172e:	48 63 c8             	movslq %eax,%rcx
  401731:	48 63 d2             	movslq %edx,%rdx
  401734:	48 89 d0             	mov    %rdx,%rax
  401737:	48 c1 e0 02          	shl    $0x2,%rax
  40173b:	48 01 d0             	add    %rdx,%rax
  40173e:	48 c1 e0 04          	shl    $0x4,%rax
  401742:	48 01 c8             	add    %rcx,%rax
  401745:	48 05 c0 42 60 00    	add    $0x6042c0,%rax
  40174b:	c6 00 00             	movb   $0x0,(%rax)
  40174e:	8b 0d 50 2b 20 00    	mov    0x202b50(%rip),%ecx        # 6042a4 <num_input_strings>
  401754:	48 63 d1             	movslq %ecx,%rdx
  401757:	48 89 d0             	mov    %rdx,%rax
  40175a:	48 c1 e0 02          	shl    $0x2,%rax
  40175e:	48 01 d0             	add    %rdx,%rax
  401761:	48 c1 e0 04          	shl    $0x4,%rax
  401765:	48 05 c0 42 60 00    	add    $0x6042c0,%rax
  40176b:	48 89 c2             	mov    %rax,%rdx
  40176e:	8d 41 01             	lea    0x1(%rcx),%eax
  401771:	89 05 2d 2b 20 00    	mov    %eax,0x202b2d(%rip)        # 6042a4 <num_input_strings>
  401777:	48 89 d0             	mov    %rdx,%rax
  40177a:	c9                   	leaveq 
  40177b:	c3                   	retq   

000000000040177c <send_msg>:
  40177c:	55                   	push   %rbp
  40177d:	48 89 e5             	mov    %rsp,%rbp
  401780:	48 81 ec 40 40 00 00 	sub    $0x4040,%rsp
  401787:	89 bd ec bf ff ff    	mov    %edi,-0x4014(%rbp)
  40178d:	8b 05 11 2b 20 00    	mov    0x202b11(%rip),%eax        # 6042a4 <num_input_strings>
  401793:	48 63 d0             	movslq %eax,%rdx
  401796:	48 89 d0             	mov    %rdx,%rax
  401799:	48 c1 e0 02          	shl    $0x2,%rax
  40179d:	48 01 d0             	add    %rdx,%rax
  4017a0:	48 c1 e0 04          	shl    $0x4,%rax
  4017a4:	48 89 c2             	mov    %rax,%rdx
  4017a7:	b8 c0 42 60 00       	mov    $0x6042c0,%eax
  4017ac:	48 83 e8 50          	sub    $0x50,%rax
  4017b0:	48 8d 04 02          	lea    (%rdx,%rax,1),%rax
  4017b4:	48 c7 c1 ff ff ff ff 	mov    $0xffffffffffffffff,%rcx
  4017bb:	48 89 85 c8 bf ff ff 	mov    %rax,-0x4038(%rbp)
  4017c2:	b8 00 00 00 00       	mov    $0x0,%eax
  4017c7:	fc                   	cld    
  4017c8:	48 8b bd c8 bf ff ff 	mov    -0x4038(%rbp),%rdi
  4017cf:	f2 ae                	repnz scas %es:(%rdi),%al
  4017d1:	48 89 c8             	mov    %rcx,%rax
  4017d4:	48 f7 d0             	not    %rax
  4017d7:	48 83 e8 01          	sub    $0x1,%rax
  4017db:	48 83 c0 64          	add    $0x64,%rax
  4017df:	48 3d 00 20 00 00    	cmp    $0x2000,%rax
  4017e5:	76 19                	jbe    401800 <send_msg+0x84>
  4017e7:	bf c0 2c 40 00       	mov    $0x402cc0,%edi
  4017ec:	b8 00 00 00 00       	mov    $0x0,%eax
  4017f1:	e8 4a f2 ff ff       	callq  400a40 <printf@plt>
  4017f6:	bf 08 00 00 00       	mov    $0x8,%edi
  4017fb:	e8 a0 f2 ff ff       	callq  400aa0 <exit@plt>
  401800:	8b 05 9e 2a 20 00    	mov    0x202a9e(%rip),%eax        # 6042a4 <num_input_strings>
  401806:	48 63 d0             	movslq %eax,%rdx
  401809:	48 89 d0             	mov    %rdx,%rax
  40180c:	48 c1 e0 02          	shl    $0x2,%rax
  401810:	48 01 d0             	add    %rdx,%rax
  401813:	48 c1 e0 04          	shl    $0x4,%rax
  401817:	48 89 c2             	mov    %rax,%rdx
  40181a:	b8 c0 42 60 00       	mov    $0x6042c0,%eax
  40181f:	48 83 e8 50          	sub    $0x50,%rax
  401823:	48 8d 04 02          	lea    (%rdx,%rax,1),%rax
  401827:	48 89 85 d0 bf ff ff 	mov    %rax,-0x4030(%rbp)
  40182e:	8b 05 70 2a 20 00    	mov    0x202a70(%rip),%eax        # 6042a4 <num_input_strings>
  401834:	89 85 dc bf ff ff    	mov    %eax,-0x4024(%rbp)
  40183a:	83 bd ec bf ff ff 00 	cmpl   $0x0,-0x4014(%rbp)
  401841:	74 0d                	je     401850 <send_msg+0xd4>
  401843:	48 c7 85 e0 bf ff ff 	movq   $0x402ce2,-0x4020(%rbp)
  40184a:	e2 2c 40 00 
  40184e:	eb 0b                	jmp    40185b <send_msg+0xdf>
  401850:	48 c7 85 e0 bf ff ff 	movq   $0x402cea,-0x4020(%rbp)
  401857:	ea 2c 40 00 
  40185b:	8b 15 9f 1f 20 00    	mov    0x201f9f(%rip),%edx        # 603800 <bomb_id>
  401861:	48 8d bd f0 df ff ff 	lea    -0x2010(%rbp),%rdi
  401868:	4c 8b 8d d0 bf ff ff 	mov    -0x4030(%rbp),%r9
  40186f:	44 8b 85 dc bf ff ff 	mov    -0x4024(%rbp),%r8d
  401876:	48 8b 8d e0 bf ff ff 	mov    -0x4020(%rbp),%rcx
  40187d:	be f3 2c 40 00       	mov    $0x402cf3,%esi
  401882:	b8 00 00 00 00       	mov    $0x0,%eax
  401887:	e8 84 f2 ff ff       	callq  400b10 <sprintf@plt>
  40188c:	48 8d 8d f0 bf ff ff 	lea    -0x4010(%rbp),%rcx
  401893:	48 8d b5 f0 df ff ff 	lea    -0x2010(%rbp),%rsi
  40189a:	ba 00 00 00 00       	mov    $0x0,%edx
  40189f:	bf 20 38 60 00       	mov    $0x603820,%edi
  4018a4:	e8 26 0f 00 00       	callq  4027cf <driver_post>
  4018a9:	89 45 fc             	mov    %eax,-0x4(%rbp)
  4018ac:	83 7d fc 00          	cmpl   $0x0,-0x4(%rbp)
  4018b0:	79 16                	jns    4018c8 <send_msg+0x14c>
  4018b2:	48 8d bd f0 bf ff ff 	lea    -0x4010(%rbp),%rdi
  4018b9:	e8 c2 f1 ff ff       	callq  400a80 <puts@plt>
  4018be:	bf 00 00 00 00       	mov    $0x0,%edi
  4018c3:	e8 d8 f1 ff ff       	callq  400aa0 <exit@plt>
  4018c8:	c9                   	leaveq 
  4018c9:	c3                   	retq   

00000000004018ca <explode_bomb>:
  4018ca:	55                   	push   %rbp
  4018cb:	48 89 e5             	mov    %rsp,%rbp
  4018ce:	bf ff 2c 40 00       	mov    $0x402cff,%edi
  4018d3:	e8 a8 f1 ff ff       	callq  400a80 <puts@plt>
  4018d8:	bf 08 2d 40 00       	mov    $0x402d08,%edi
  4018dd:	e8 9e f1 ff ff       	callq  400a80 <puts@plt>
  4018e2:	bf 00 00 00 00       	mov    $0x0,%edi
  4018e7:	e8 90 fe ff ff       	callq  40177c <send_msg>
  4018ec:	bf 20 2d 40 00       	mov    $0x402d20,%edi
  4018f1:	e8 8a f1 ff ff       	callq  400a80 <puts@plt>
  4018f6:	bf 08 00 00 00       	mov    $0x8,%edi
  4018fb:	e8 a0 f1 ff ff       	callq  400aa0 <exit@plt>

0000000000401900 <phase_defused>:
  401900:	55                   	push   %rbp
  401901:	48 89 e5             	mov    %rsp,%rbp
  401904:	48 83 ec 70          	sub    $0x70,%rsp
  401908:	bf 01 00 00 00       	mov    $0x1,%edi
  40190d:	e8 6a fe ff ff       	callq  40177c <send_msg>
  401912:	8b 05 8c 29 20 00    	mov    0x20298c(%rip),%eax        # 6042a4 <num_input_strings>
  401918:	83 f8 06             	cmp    $0x6,%eax
  40191b:	75 73                	jne    401990 <phase_defused+0x90>
  40191d:	b8 b0 43 60 00       	mov    $0x6043b0,%eax
  401922:	48 89 c7             	mov    %rax,%rdi
  401925:	48 8d 45 a0          	lea    -0x60(%rbp),%rax
  401929:	48 8d 4d 98          	lea    -0x68(%rbp),%rcx
  40192d:	48 8d 55 9c          	lea    -0x64(%rbp),%rdx
  401931:	49 89 c0             	mov    %rax,%r8
  401934:	be 43 2d 40 00       	mov    $0x402d43,%esi
  401939:	b8 00 00 00 00       	mov    $0x0,%eax
  40193e:	e8 dd f1 ff ff       	callq  400b20 <sscanf@plt>
  401943:	89 45 fc             	mov    %eax,-0x4(%rbp)
  401946:	83 7d fc 03          	cmpl   $0x3,-0x4(%rbp)
  40194a:	75 30                	jne    40197c <phase_defused+0x7c>
  40194c:	48 8d 7d a0          	lea    -0x60(%rbp),%rdi
  401950:	be 4c 2d 40 00       	mov    $0x402d4c,%esi
  401955:	e8 d4 fa ff ff       	callq  40142e <strings_not_equal>
  40195a:	85 c0                	test   %eax,%eax
  40195c:	75 1e                	jne    40197c <phase_defused+0x7c>
  40195e:	bf 58 2d 40 00       	mov    $0x402d58,%edi
  401963:	e8 18 f1 ff ff       	callq  400a80 <puts@plt>
  401968:	bf 80 2d 40 00       	mov    $0x402d80,%edi
  40196d:	e8 0e f1 ff ff       	callq  400a80 <puts@plt>
  401972:	b8 00 00 00 00       	mov    $0x0,%eax
  401977:	e8 28 f9 ff ff       	callq  4012a4 <secret_phase>
  40197c:	bf b8 2d 40 00       	mov    $0x402db8,%edi
  401981:	e8 fa f0 ff ff       	callq  400a80 <puts@plt>
  401986:	bf e8 2d 40 00       	mov    $0x402de8,%edi
  40198b:	e8 f0 f0 ff ff       	callq  400a80 <puts@plt>
  401990:	c9                   	leaveq 
  401991:	c3                   	retq   
  401992:	90                   	nop
  401993:	90                   	nop

0000000000401994 <sigalrm_handler>:
  401994:	55                   	push   %rbp
  401995:	48 89 e5             	mov    %rsp,%rbp
  401998:	48 83 ec 10          	sub    $0x10,%rsp
  40199c:	89 7d fc             	mov    %edi,-0x4(%rbp)
  40199f:	48 8b 3d e2 28 20 00 	mov    0x2028e2(%rip),%rdi        # 604288 <stderr@@GLIBC_2.2.5>
  4019a6:	ba 00 00 00 00       	mov    $0x0,%edx
  4019ab:	be 30 2e 40 00       	mov    $0x402e30,%esi
  4019b0:	b8 00 00 00 00       	mov    $0x0,%eax
  4019b5:	e8 16 f2 ff ff       	callq  400bd0 <fprintf@plt>
  4019ba:	bf 01 00 00 00       	mov    $0x1,%edi
  4019bf:	e8 dc f0 ff ff       	callq  400aa0 <exit@plt>

00000000004019c4 <rio_readinitb>:
  4019c4:	55                   	push   %rbp
  4019c5:	48 89 e5             	mov    %rsp,%rbp
  4019c8:	48 89 7d f8          	mov    %rdi,-0x8(%rbp)
  4019cc:	89 75 f4             	mov    %esi,-0xc(%rbp)
  4019cf:	48 8b 55 f8          	mov    -0x8(%rbp),%rdx
  4019d3:	8b 45 f4             	mov    -0xc(%rbp),%eax
  4019d6:	89 02                	mov    %eax,(%rdx)
  4019d8:	48 8b 45 f8          	mov    -0x8(%rbp),%rax
  4019dc:	c7 40 04 00 00 00 00 	movl   $0x0,0x4(%rax)
  4019e3:	48 8b 55 f8          	mov    -0x8(%rbp),%rdx
  4019e7:	48 83 c2 10          	add    $0x10,%rdx
  4019eb:	48 8b 45 f8          	mov    -0x8(%rbp),%rax
  4019ef:	48 89 50 08          	mov    %rdx,0x8(%rax)
  4019f3:	c9                   	leaveq 
  4019f4:	c3                   	retq   

00000000004019f5 <rio_read>:
  4019f5:	55                   	push   %rbp
  4019f6:	48 89 e5             	mov    %rsp,%rbp
  4019f9:	48 83 ec 30          	sub    $0x30,%rsp
  4019fd:	48 89 7d e8          	mov    %rdi,-0x18(%rbp)
  401a01:	48 89 75 e0          	mov    %rsi,-0x20(%rbp)
  401a05:	48 89 55 d8          	mov    %rdx,-0x28(%rbp)
  401a09:	eb 6d                	jmp    401a78 <rio_read+0x83>
  401a0b:	48 8b 75 e8          	mov    -0x18(%rbp),%rsi
  401a0f:	48 83 c6 10          	add    $0x10,%rsi
  401a13:	48 8b 45 e8          	mov    -0x18(%rbp),%rax
  401a17:	8b 38                	mov    (%rax),%edi
  401a19:	ba 00 20 00 00       	mov    $0x2000,%edx
  401a1e:	e8 8d f0 ff ff       	callq  400ab0 <read@plt>
  401a23:	89 c2                	mov    %eax,%edx
  401a25:	48 8b 45 e8          	mov    -0x18(%rbp),%rax
  401a29:	89 50 04             	mov    %edx,0x4(%rax)
  401a2c:	48 8b 45 e8          	mov    -0x18(%rbp),%rax
  401a30:	8b 40 04             	mov    0x4(%rax),%eax
  401a33:	85 c0                	test   %eax,%eax
  401a35:	79 19                	jns    401a50 <rio_read+0x5b>
  401a37:	e8 74 f1 ff ff       	callq  400bb0 <__errno_location@plt>
  401a3c:	8b 00                	mov    (%rax),%eax
  401a3e:	83 f8 04             	cmp    $0x4,%eax
  401a41:	74 35                	je     401a78 <rio_read+0x83>
  401a43:	48 c7 45 d0 ff ff ff 	movq   $0xffffffffffffffff,-0x30(%rbp)
  401a4a:	ff 
  401a4b:	e9 a2 00 00 00       	jmpq   401af2 <rio_read+0xfd>
  401a50:	48 8b 45 e8          	mov    -0x18(%rbp),%rax
  401a54:	8b 40 04             	mov    0x4(%rax),%eax
  401a57:	85 c0                	test   %eax,%eax
  401a59:	75 0d                	jne    401a68 <rio_read+0x73>
  401a5b:	48 c7 45 d0 00 00 00 	movq   $0x0,-0x30(%rbp)
  401a62:	00 
  401a63:	e9 8a 00 00 00       	jmpq   401af2 <rio_read+0xfd>
  401a68:	48 8b 55 e8          	mov    -0x18(%rbp),%rdx
  401a6c:	48 83 c2 10          	add    $0x10,%rdx
  401a70:	48 8b 45 e8          	mov    -0x18(%rbp),%rax
  401a74:	48 89 50 08          	mov    %rdx,0x8(%rax)
  401a78:	48 8b 45 e8          	mov    -0x18(%rbp),%rax
  401a7c:	8b 40 04             	mov    0x4(%rax),%eax
  401a7f:	85 c0                	test   %eax,%eax
  401a81:	7e 88                	jle    401a0b <rio_read+0x16>
  401a83:	48 8b 45 d8          	mov    -0x28(%rbp),%rax
  401a87:	89 45 fc             	mov    %eax,-0x4(%rbp)
  401a8a:	48 8b 45 e8          	mov    -0x18(%rbp),%rax
  401a8e:	8b 40 04             	mov    0x4(%rax),%eax
  401a91:	48 98                	cltq   
  401a93:	48 3b 45 d8          	cmp    -0x28(%rbp),%rax
  401a97:	73 0a                	jae    401aa3 <rio_read+0xae>
  401a99:	48 8b 45 e8          	mov    -0x18(%rbp),%rax
  401a9d:	8b 40 04             	mov    0x4(%rax),%eax
  401aa0:	89 45 fc             	mov    %eax,-0x4(%rbp)
  401aa3:	8b 45 fc             	mov    -0x4(%rbp),%eax
  401aa6:	48 63 c8             	movslq %eax,%rcx
  401aa9:	48 8b 45 e8          	mov    -0x18(%rbp),%rax
  401aad:	48 8b 50 08          	mov    0x8(%rax),%rdx
  401ab1:	48 8b 45 e0          	mov    -0x20(%rbp),%rax
  401ab5:	48 89 c7             	mov    %rax,%rdi
  401ab8:	48 89 d6             	mov    %rdx,%rsi
  401abb:	fc                   	cld    
  401abc:	f3 a4                	rep movsb %ds:(%rsi),%es:(%rdi)
  401abe:	48 8b 45 e8          	mov    -0x18(%rbp),%rax
  401ac2:	48 8b 50 08          	mov    0x8(%rax),%rdx
  401ac6:	8b 45 fc             	mov    -0x4(%rbp),%eax
  401ac9:	48 98                	cltq   
  401acb:	48 01 c2             	add    %rax,%rdx
  401ace:	48 8b 45 e8          	mov    -0x18(%rbp),%rax
  401ad2:	48 89 50 08          	mov    %rdx,0x8(%rax)
  401ad6:	48 8b 45 e8          	mov    -0x18(%rbp),%rax
  401ada:	8b 40 04             	mov    0x4(%rax),%eax
  401add:	89 c2                	mov    %eax,%edx
  401adf:	2b 55 fc             	sub    -0x4(%rbp),%edx
  401ae2:	48 8b 45 e8          	mov    -0x18(%rbp),%rax
  401ae6:	89 50 04             	mov    %edx,0x4(%rax)
  401ae9:	8b 45 fc             	mov    -0x4(%rbp),%eax
  401aec:	48 98                	cltq   
  401aee:	48 89 45 d0          	mov    %rax,-0x30(%rbp)
  401af2:	48 8b 45 d0          	mov    -0x30(%rbp),%rax
  401af6:	c9                   	leaveq 
  401af7:	c3                   	retq   

0000000000401af8 <rio_readlineb>:
  401af8:	55                   	push   %rbp
  401af9:	48 89 e5             	mov    %rsp,%rbp
  401afc:	48 83 ec 40          	sub    $0x40,%rsp
  401b00:	48 89 7d d8          	mov    %rdi,-0x28(%rbp)
  401b04:	48 89 75 d0          	mov    %rsi,-0x30(%rbp)
  401b08:	48 89 55 c8          	mov    %rdx,-0x38(%rbp)
  401b0c:	48 8b 45 d0          	mov    -0x30(%rbp),%rax
  401b10:	48 89 45 f8          	mov    %rax,-0x8(%rbp)
  401b14:	c7 45 f0 01 00 00 00 	movl   $0x1,-0x10(%rbp)
  401b1b:	eb 58                	jmp    401b75 <rio_readlineb+0x7d>
  401b1d:	48 8d 75 ef          	lea    -0x11(%rbp),%rsi
  401b21:	48 8b 7d d8          	mov    -0x28(%rbp),%rdi
  401b25:	ba 01 00 00 00       	mov    $0x1,%edx
  401b2a:	e8 c6 fe ff ff       	callq  4019f5 <rio_read>
  401b2f:	89 45 f4             	mov    %eax,-0xc(%rbp)
  401b32:	83 7d f4 01          	cmpl   $0x1,-0xc(%rbp)
  401b36:	75 1d                	jne    401b55 <rio_readlineb+0x5d>
  401b38:	0f b6 45 ef          	movzbl -0x11(%rbp),%eax
  401b3c:	48 8b 55 f8          	mov    -0x8(%rbp),%rdx
  401b40:	88 02                	mov    %al,(%rdx)
  401b42:	48 83 45 f8 01       	addq   $0x1,-0x8(%rbp)
  401b47:	0f b6 45 ef          	movzbl -0x11(%rbp),%eax
  401b4b:	3c 0a                	cmp    $0xa,%al
  401b4d:	74 31                	je     401b80 <rio_readlineb+0x88>
  401b4f:	83 45 f0 01          	addl   $0x1,-0x10(%rbp)
  401b53:	eb 20                	jmp    401b75 <rio_readlineb+0x7d>
  401b55:	83 7d f4 00          	cmpl   $0x0,-0xc(%rbp)
  401b59:	75 10                	jne    401b6b <rio_readlineb+0x73>
  401b5b:	83 7d f0 01          	cmpl   $0x1,-0x10(%rbp)
  401b5f:	75 1f                	jne    401b80 <rio_readlineb+0x88>
  401b61:	48 c7 45 c0 00 00 00 	movq   $0x0,-0x40(%rbp)
  401b68:	00 
  401b69:	eb 25                	jmp    401b90 <rio_readlineb+0x98>
  401b6b:	48 c7 45 c0 ff ff ff 	movq   $0xffffffffffffffff,-0x40(%rbp)
  401b72:	ff 
  401b73:	eb 1b                	jmp    401b90 <rio_readlineb+0x98>
  401b75:	8b 45 f0             	mov    -0x10(%rbp),%eax
  401b78:	48 98                	cltq   
  401b7a:	48 3b 45 c8          	cmp    -0x38(%rbp),%rax
  401b7e:	72 9d                	jb     401b1d <rio_readlineb+0x25>
  401b80:	48 8b 45 f8          	mov    -0x8(%rbp),%rax
  401b84:	c6 00 00             	movb   $0x0,(%rax)
  401b87:	8b 45 f0             	mov    -0x10(%rbp),%eax
  401b8a:	48 98                	cltq   
  401b8c:	48 89 45 c0          	mov    %rax,-0x40(%rbp)
  401b90:	48 8b 45 c0          	mov    -0x40(%rbp),%rax
  401b94:	c9                   	leaveq 
  401b95:	c3                   	retq   

0000000000401b96 <rio_writen>:
  401b96:	55                   	push   %rbp
  401b97:	48 89 e5             	mov    %rsp,%rbp
  401b9a:	48 83 ec 40          	sub    $0x40,%rsp
  401b9e:	89 7d dc             	mov    %edi,-0x24(%rbp)
  401ba1:	48 89 75 d0          	mov    %rsi,-0x30(%rbp)
  401ba5:	48 89 55 c8          	mov    %rdx,-0x38(%rbp)
  401ba9:	48 8b 45 c8          	mov    -0x38(%rbp),%rax
  401bad:	48 89 45 e8          	mov    %rax,-0x18(%rbp)
  401bb1:	48 8b 45 d0          	mov    -0x30(%rbp),%rax
  401bb5:	48 89 45 f8          	mov    %rax,-0x8(%rbp)
  401bb9:	eb 4b                	jmp    401c06 <rio_writen+0x70>
  401bbb:	48 8b 55 e8          	mov    -0x18(%rbp),%rdx
  401bbf:	48 8b 75 f8          	mov    -0x8(%rbp),%rsi
  401bc3:	8b 7d dc             	mov    -0x24(%rbp),%edi
  401bc6:	e8 15 f0 ff ff       	callq  400be0 <write@plt>
  401bcb:	48 89 45 f0          	mov    %rax,-0x10(%rbp)
  401bcf:	48 83 7d f0 00       	cmpq   $0x0,-0x10(%rbp)
  401bd4:	7f 20                	jg     401bf6 <rio_writen+0x60>
  401bd6:	e8 d5 ef ff ff       	callq  400bb0 <__errno_location@plt>
  401bdb:	8b 00                	mov    (%rax),%eax
  401bdd:	83 f8 04             	cmp    $0x4,%eax
  401be0:	75 0a                	jne    401bec <rio_writen+0x56>
  401be2:	48 c7 45 f0 00 00 00 	movq   $0x0,-0x10(%rbp)
  401be9:	00 
  401bea:	eb 0a                	jmp    401bf6 <rio_writen+0x60>
  401bec:	48 c7 45 c0 ff ff ff 	movq   $0xffffffffffffffff,-0x40(%rbp)
  401bf3:	ff 
  401bf4:	eb 1f                	jmp    401c15 <rio_writen+0x7f>
  401bf6:	48 8b 45 f0          	mov    -0x10(%rbp),%rax
  401bfa:	48 29 45 e8          	sub    %rax,-0x18(%rbp)
  401bfe:	48 8b 45 f0          	mov    -0x10(%rbp),%rax
  401c02:	48 01 45 f8          	add    %rax,-0x8(%rbp)
  401c06:	48 83 7d e8 00       	cmpq   $0x0,-0x18(%rbp)
  401c0b:	75 ae                	jne    401bbb <rio_writen+0x25>
  401c0d:	48 8b 45 c8          	mov    -0x38(%rbp),%rax
  401c11:	48 89 45 c0          	mov    %rax,-0x40(%rbp)
  401c15:	48 8b 45 c0          	mov    -0x40(%rbp),%rax
  401c19:	c9                   	leaveq 
  401c1a:	c3                   	retq   

0000000000401c1b <urlencode>:
  401c1b:	55                   	push   %rbp
  401c1c:	48 89 e5             	mov    %rsp,%rbp
  401c1f:	48 83 ec 30          	sub    $0x30,%rsp
  401c23:	48 89 7d e8          	mov    %rdi,-0x18(%rbp)
  401c27:	48 89 75 e0          	mov    %rsi,-0x20(%rbp)
  401c2b:	48 8b 45 e8          	mov    -0x18(%rbp),%rax
  401c2f:	48 c7 c1 ff ff ff ff 	mov    $0xffffffffffffffff,%rcx
  401c36:	48 89 45 d0          	mov    %rax,-0x30(%rbp)
  401c3a:	b8 00 00 00 00       	mov    $0x0,%eax
  401c3f:	fc                   	cld    
  401c40:	48 8b 7d d0          	mov    -0x30(%rbp),%rdi
  401c44:	f2 ae                	repnz scas %es:(%rdi),%al
  401c46:	48 89 c8             	mov    %rcx,%rax
  401c49:	48 f7 d0             	not    %rax
  401c4c:	48 83 e8 01          	sub    $0x1,%rax
  401c50:	89 45 fc             	mov    %eax,-0x4(%rbp)
  401c53:	e9 1f 01 00 00       	jmpq   401d77 <urlencode+0x15c>
  401c58:	48 8b 45 e8          	mov    -0x18(%rbp),%rax
  401c5c:	0f b6 00             	movzbl (%rax),%eax
  401c5f:	3c 2a                	cmp    $0x2a,%al
  401c61:	74 63                	je     401cc6 <urlencode+0xab>
  401c63:	48 8b 45 e8          	mov    -0x18(%rbp),%rax
  401c67:	0f b6 00             	movzbl (%rax),%eax
  401c6a:	3c 2d                	cmp    $0x2d,%al
  401c6c:	74 58                	je     401cc6 <urlencode+0xab>
  401c6e:	48 8b 45 e8          	mov    -0x18(%rbp),%rax
  401c72:	0f b6 00             	movzbl (%rax),%eax
  401c75:	3c 2e                	cmp    $0x2e,%al
  401c77:	74 4d                	je     401cc6 <urlencode+0xab>
  401c79:	48 8b 45 e8          	mov    -0x18(%rbp),%rax
  401c7d:	0f b6 00             	movzbl (%rax),%eax
  401c80:	3c 5f                	cmp    $0x5f,%al
  401c82:	74 42                	je     401cc6 <urlencode+0xab>
  401c84:	48 8b 45 e8          	mov    -0x18(%rbp),%rax
  401c88:	0f b6 00             	movzbl (%rax),%eax
  401c8b:	3c 2f                	cmp    $0x2f,%al
  401c8d:	76 0b                	jbe    401c9a <urlencode+0x7f>
  401c8f:	48 8b 45 e8          	mov    -0x18(%rbp),%rax
  401c93:	0f b6 00             	movzbl (%rax),%eax
  401c96:	3c 39                	cmp    $0x39,%al
  401c98:	76 2c                	jbe    401cc6 <urlencode+0xab>
  401c9a:	48 8b 45 e8          	mov    -0x18(%rbp),%rax
  401c9e:	0f b6 00             	movzbl (%rax),%eax
  401ca1:	3c 40                	cmp    $0x40,%al
  401ca3:	76 0b                	jbe    401cb0 <urlencode+0x95>
  401ca5:	48 8b 45 e8          	mov    -0x18(%rbp),%rax
  401ca9:	0f b6 00             	movzbl (%rax),%eax
  401cac:	3c 5a                	cmp    $0x5a,%al
  401cae:	76 16                	jbe    401cc6 <urlencode+0xab>
  401cb0:	48 8b 45 e8          	mov    -0x18(%rbp),%rax
  401cb4:	0f b6 00             	movzbl (%rax),%eax
  401cb7:	3c 60                	cmp    $0x60,%al
  401cb9:	76 22                	jbe    401cdd <urlencode+0xc2>
  401cbb:	48 8b 45 e8          	mov    -0x18(%rbp),%rax
  401cbf:	0f b6 00             	movzbl (%rax),%eax
  401cc2:	3c 7a                	cmp    $0x7a,%al
  401cc4:	77 17                	ja     401cdd <urlencode+0xc2>
  401cc6:	48 8b 45 e8          	mov    -0x18(%rbp),%rax
  401cca:	0f b6 10             	movzbl (%rax),%edx
  401ccd:	48 8b 45 e0          	mov    -0x20(%rbp),%rax
  401cd1:	88 10                	mov    %dl,(%rax)
  401cd3:	48 83 45 e0 01       	addq   $0x1,-0x20(%rbp)
  401cd8:	e9 95 00 00 00       	jmpq   401d72 <urlencode+0x157>
  401cdd:	48 8b 45 e8          	mov    -0x18(%rbp),%rax
  401ce1:	0f b6 00             	movzbl (%rax),%eax
  401ce4:	3c 20                	cmp    $0x20,%al
  401ce6:	75 0e                	jne    401cf6 <urlencode+0xdb>
  401ce8:	48 8b 45 e0          	mov    -0x20(%rbp),%rax
  401cec:	c6 00 2b             	movb   $0x2b,(%rax)
  401cef:	48 83 45 e0 01       	addq   $0x1,-0x20(%rbp)
  401cf4:	eb 7c                	jmp    401d72 <urlencode+0x157>
  401cf6:	48 8b 45 e8          	mov    -0x18(%rbp),%rax
  401cfa:	0f b6 00             	movzbl (%rax),%eax
  401cfd:	3c 1f                	cmp    $0x1f,%al
  401cff:	76 0b                	jbe    401d0c <urlencode+0xf1>
  401d01:	48 8b 45 e8          	mov    -0x18(%rbp),%rax
  401d05:	0f b6 00             	movzbl (%rax),%eax
  401d08:	84 c0                	test   %al,%al
  401d0a:	79 0b                	jns    401d17 <urlencode+0xfc>
  401d0c:	48 8b 45 e8          	mov    -0x18(%rbp),%rax
  401d10:	0f b6 00             	movzbl (%rax),%eax
  401d13:	3c 09                	cmp    $0x9,%al
  401d15:	75 52                	jne    401d69 <urlencode+0x14e>
  401d17:	48 8b 45 e8          	mov    -0x18(%rbp),%rax
  401d1b:	0f b6 00             	movzbl (%rax),%eax
  401d1e:	0f b6 d0             	movzbl %al,%edx
  401d21:	48 8d 7d f0          	lea    -0x10(%rbp),%rdi
  401d25:	be 54 2e 40 00       	mov    $0x402e54,%esi
  401d2a:	b8 00 00 00 00       	mov    $0x0,%eax
  401d2f:	e8 dc ed ff ff       	callq  400b10 <sprintf@plt>
  401d34:	0f b6 45 f0          	movzbl -0x10(%rbp),%eax
  401d38:	89 c2                	mov    %eax,%edx
  401d3a:	48 8b 45 e0          	mov    -0x20(%rbp),%rax
  401d3e:	88 10                	mov    %dl,(%rax)
  401d40:	48 83 45 e0 01       	addq   $0x1,-0x20(%rbp)
  401d45:	0f b6 45 f1          	movzbl -0xf(%rbp),%eax
  401d49:	89 c2                	mov    %eax,%edx
  401d4b:	48 8b 45 e0          	mov    -0x20(%rbp),%rax
  401d4f:	88 10                	mov    %dl,(%rax)
  401d51:	48 83 45 e0 01       	addq   $0x1,-0x20(%rbp)
  401d56:	0f b6 45 f2          	movzbl -0xe(%rbp),%eax
  401d5a:	89 c2                	mov    %eax,%edx
  401d5c:	48 8b 45 e0          	mov    -0x20(%rbp),%rax
  401d60:	88 10                	mov    %dl,(%rax)
  401d62:	48 83 45 e0 01       	addq   $0x1,-0x20(%rbp)
  401d67:	eb 09                	jmp    401d72 <urlencode+0x157>
  401d69:	c7 45 dc ff ff ff ff 	movl   $0xffffffff,-0x24(%rbp)
  401d70:	eb 1a                	jmp    401d8c <urlencode+0x171>
  401d72:	48 83 45 e8 01       	addq   $0x1,-0x18(%rbp)
  401d77:	83 6d fc 01          	subl   $0x1,-0x4(%rbp)
  401d7b:	83 7d fc ff          	cmpl   $0xffffffffffffffff,-0x4(%rbp)
  401d7f:	0f 85 d3 fe ff ff    	jne    401c58 <urlencode+0x3d>
  401d85:	c7 45 dc 00 00 00 00 	movl   $0x0,-0x24(%rbp)
  401d8c:	8b 45 dc             	mov    -0x24(%rbp),%eax
  401d8f:	c9                   	leaveq 
  401d90:	c3                   	retq   

0000000000401d91 <submitr>:
  401d91:	55                   	push   %rbp
  401d92:	48 89 e5             	mov    %rsp,%rbp
  401d95:	48 81 ec e0 a0 00 00 	sub    $0xa0e0,%rsp
  401d9c:	48 89 bd a8 5f ff ff 	mov    %rdi,-0xa058(%rbp)
  401da3:	89 b5 a4 5f ff ff    	mov    %esi,-0xa05c(%rbp)
  401da9:	48 89 95 98 5f ff ff 	mov    %rdx,-0xa068(%rbp)
  401db0:	48 89 8d 90 5f ff ff 	mov    %rcx,-0xa070(%rbp)
  401db7:	4c 89 85 88 5f ff ff 	mov    %r8,-0xa078(%rbp)
  401dbe:	4c 89 8d 80 5f ff ff 	mov    %r9,-0xa080(%rbp)
  401dc5:	c7 85 bc 7f ff ff 00 	movl   $0x0,-0x8044(%rbp)
  401dcc:	00 00 00 
  401dcf:	ba 00 00 00 00       	mov    $0x0,%edx
  401dd4:	be 01 00 00 00       	mov    $0x1,%esi
  401dd9:	bf 02 00 00 00       	mov    $0x2,%edi
  401dde:	e8 9d ed ff ff       	callq  400b80 <socket@plt>
  401de3:	89 45 e4             	mov    %eax,-0x1c(%rbp)
  401de6:	83 7d e4 00          	cmpl   $0x0,-0x1c(%rbp)
  401dea:	79 57                	jns    401e43 <submitr+0xb2>
  401dec:	48 8b 45 10          	mov    0x10(%rbp),%rax
  401df0:	c7 00 45 72 72 6f    	movl   $0x6f727245,(%rax)
  401df6:	c7 40 04 72 3a 20 43 	movl   $0x43203a72,0x4(%rax)
  401dfd:	c7 40 08 6c 69 65 6e 	movl   $0x6e65696c,0x8(%rax)
  401e04:	c7 40 0c 74 20 75 6e 	movl   $0x6e752074,0xc(%rax)
  401e0b:	c7 40 10 61 62 6c 65 	movl   $0x656c6261,0x10(%rax)
  401e12:	c7 40 14 20 74 6f 20 	movl   $0x206f7420,0x14(%rax)
  401e19:	c7 40 18 63 72 65 61 	movl   $0x61657263,0x18(%rax)
  401e20:	c7 40 1c 74 65 20 73 	movl   $0x73206574,0x1c(%rax)
  401e27:	c7 40 20 6f 63 6b 65 	movl   $0x656b636f,0x20(%rax)
  401e2e:	66 c7 40 24 74 00    	movw   $0x74,0x24(%rax)
  401e34:	c7 85 7c 5f ff ff ff 	movl   $0xffffffff,-0xa084(%rbp)
  401e3b:	ff ff ff 
  401e3e:	e9 6a 07 00 00       	jmpq   4025ad <submitr+0x81c>
  401e43:	48 8b bd a8 5f ff ff 	mov    -0xa058(%rbp),%rdi
  401e4a:	e8 21 ec ff ff       	callq  400a70 <gethostbyname@plt>
  401e4f:	48 89 45 e8          	mov    %rax,-0x18(%rbp)
  401e53:	48 83 7d e8 00       	cmpq   $0x0,-0x18(%rbp)
  401e58:	75 71                	jne    401ecb <submitr+0x13a>
  401e5a:	48 8b 45 10          	mov    0x10(%rbp),%rax
  401e5e:	c7 00 45 72 72 6f    	movl   $0x6f727245,(%rax)
  401e64:	c7 40 04 72 3a 20 44 	movl   $0x44203a72,0x4(%rax)
  401e6b:	c7 40 08 4e 53 20 69 	movl   $0x6920534e,0x8(%rax)
  401e72:	c7 40 0c 73 20 75 6e 	movl   $0x6e752073,0xc(%rax)
  401e79:	c7 40 10 61 62 6c 65 	movl   $0x656c6261,0x10(%rax)
  401e80:	c7 40 14 20 74 6f 20 	movl   $0x206f7420,0x14(%rax)
  401e87:	c7 40 18 72 65 73 6f 	movl   $0x6f736572,0x18(%rax)
  401e8e:	c7 40 1c 6c 76 65 20 	movl   $0x2065766c,0x1c(%rax)
  401e95:	c7 40 20 73 65 72 76 	movl   $0x76726573,0x20(%rax)
  401e9c:	c7 40 24 65 72 20 61 	movl   $0x61207265,0x24(%rax)
  401ea3:	c7 40 28 64 64 72 65 	movl   $0x65726464,0x28(%rax)
  401eaa:	66 c7 40 2c 73 73    	movw   $0x7373,0x2c(%rax)
  401eb0:	c6 40 2e 00          	movb   $0x0,0x2e(%rax)
  401eb4:	8b 7d e4             	mov    -0x1c(%rbp),%edi
  401eb7:	e8 a4 eb ff ff       	callq  400a60 <close@plt>
  401ebc:	c7 85 7c 5f ff ff ff 	movl   $0xffffffff,-0xa084(%rbp)
  401ec3:	ff ff ff 
  401ec6:	e9 e2 06 00 00       	jmpq   4025ad <submitr+0x81c>
  401ecb:	48 8d 45 d0          	lea    -0x30(%rbp),%rax
  401ecf:	48 c7 00 00 00 00 00 	movq   $0x0,(%rax)
  401ed6:	48 c7 40 08 00 00 00 	movq   $0x0,0x8(%rax)
  401edd:	00 
  401ede:	66 c7 45 d0 02 00    	movw   $0x2,-0x30(%rbp)
  401ee4:	48 8b 45 e8          	mov    -0x18(%rbp),%rax
  401ee8:	8b 40 14             	mov    0x14(%rax),%eax
  401eeb:	48 63 d0             	movslq %eax,%rdx
  401eee:	48 8d 45 d0          	lea    -0x30(%rbp),%rax
  401ef2:	48 8d 70 04          	lea    0x4(%rax),%rsi
  401ef6:	48 8b 45 e8          	mov    -0x18(%rbp),%rax
  401efa:	48 8b 40 18          	mov    0x18(%rax),%rax
  401efe:	48 8b 38             	mov    (%rax),%rdi
  401f01:	e8 ea eb ff ff       	callq  400af0 <bcopy@plt>
  401f06:	8b 85 a4 5f ff ff    	mov    -0xa05c(%rbp),%eax
  401f0c:	0f b7 f8             	movzwl %ax,%edi
  401f0f:	e8 7c eb ff ff       	callq  400a90 <htons@plt>
  401f14:	66 89 45 d2          	mov    %ax,-0x2e(%rbp)
  401f18:	48 8d 75 d0          	lea    -0x30(%rbp),%rsi
  401f1c:	8b 7d e4             	mov    -0x1c(%rbp),%edi
  401f1f:	ba 10 00 00 00       	mov    $0x10,%edx
  401f24:	e8 27 ec ff ff       	callq  400b50 <connect@plt>
  401f29:	85 c0                	test   %eax,%eax
  401f2b:	79 63                	jns    401f90 <submitr+0x1ff>
  401f2d:	48 8b 45 10          	mov    0x10(%rbp),%rax
  401f31:	c7 00 45 72 72 6f    	movl   $0x6f727245,(%rax)
  401f37:	c7 40 04 72 3a 20 55 	movl   $0x55203a72,0x4(%rax)
  401f3e:	c7 40 08 6e 61 62 6c 	movl   $0x6c62616e,0x8(%rax)
  401f45:	c7 40 0c 65 20 74 6f 	movl   $0x6f742065,0xc(%rax)
  401f4c:	c7 40 10 20 63 6f 6e 	movl   $0x6e6f6320,0x10(%rax)
  401f53:	c7 40 14 6e 65 63 74 	movl   $0x7463656e,0x14(%rax)
  401f5a:	c7 40 18 20 74 6f 20 	movl   $0x206f7420,0x18(%rax)
  401f61:	c7 40 1c 74 68 65 20 	movl   $0x20656874,0x1c(%rax)
  401f68:	c7 40 20 73 65 72 76 	movl   $0x76726573,0x20(%rax)
  401f6f:	66 c7 40 24 65 72    	movw   $0x7265,0x24(%rax)
  401f75:	c6 40 26 00          	movb   $0x0,0x26(%rax)
  401f79:	8b 7d e4             	mov    -0x1c(%rbp),%edi
  401f7c:	e8 df ea ff ff       	callq  400a60 <close@plt>
  401f81:	c7 85 7c 5f ff ff ff 	movl   $0xffffffff,-0xa084(%rbp)
  401f88:	ff ff ff 
  401f8b:	e9 1d 06 00 00       	jmpq   4025ad <submitr+0x81c>
  401f90:	48 8b 85 80 5f ff ff 	mov    -0xa080(%rbp),%rax
  401f97:	48 c7 c1 ff ff ff ff 	mov    $0xffffffffffffffff,%rcx
  401f9e:	48 89 85 70 5f ff ff 	mov    %rax,-0xa090(%rbp)
  401fa5:	b8 00 00 00 00       	mov    $0x0,%eax
  401faa:	fc                   	cld    
  401fab:	48 8b bd 70 5f ff ff 	mov    -0xa090(%rbp),%rdi
  401fb2:	f2 ae                	repnz scas %es:(%rdi),%al
  401fb4:	48 89 c8             	mov    %rcx,%rax
  401fb7:	48 f7 d0             	not    %rax
  401fba:	48 83 e8 01          	sub    $0x1,%rax
  401fbe:	48 89 45 f0          	mov    %rax,-0x10(%rbp)
  401fc2:	48 8b 85 98 5f ff ff 	mov    -0xa068(%rbp),%rax
  401fc9:	48 c7 c1 ff ff ff ff 	mov    $0xffffffffffffffff,%rcx
  401fd0:	48 89 85 68 5f ff ff 	mov    %rax,-0xa098(%rbp)
  401fd7:	b8 00 00 00 00       	mov    $0x0,%eax
  401fdc:	fc                   	cld    
  401fdd:	48 8b bd 68 5f ff ff 	mov    -0xa098(%rbp),%rdi
  401fe4:	f2 ae                	repnz scas %es:(%rdi),%al
  401fe6:	48 89 c8             	mov    %rcx,%rax
  401fe9:	48 f7 d0             	not    %rax
  401fec:	48 8d 50 ff          	lea    -0x1(%rax),%rdx
  401ff0:	48 8b 85 90 5f ff ff 	mov    -0xa070(%rbp),%rax
  401ff7:	48 c7 c1 ff ff ff ff 	mov    $0xffffffffffffffff,%rcx
  401ffe:	48 89 85 60 5f ff ff 	mov    %rax,-0xa0a0(%rbp)
  402005:	b8 00 00 00 00       	mov    $0x0,%eax
  40200a:	fc                   	cld    
  40200b:	48 8b bd 60 5f ff ff 	mov    -0xa0a0(%rbp),%rdi
  402012:	f2 ae                	repnz scas %es:(%rdi),%al
  402014:	48 89 c8             	mov    %rcx,%rax
  402017:	48 f7 d0             	not    %rax
  40201a:	48 83 e8 01          	sub    $0x1,%rax
  40201e:	48 01 c2             	add    %rax,%rdx
  402021:	48 8b 85 88 5f ff ff 	mov    -0xa078(%rbp),%rax
  402028:	48 c7 c1 ff ff ff ff 	mov    $0xffffffffffffffff,%rcx
  40202f:	48 89 85 58 5f ff ff 	mov    %rax,-0xa0a8(%rbp)
  402036:	b8 00 00 00 00       	mov    $0x0,%eax
  40203b:	fc                   	cld    
  40203c:	48 8b bd 58 5f ff ff 	mov    -0xa0a8(%rbp),%rdi
  402043:	f2 ae                	repnz scas %es:(%rdi),%al
  402045:	48 89 c8             	mov    %rcx,%rax
  402048:	48 f7 d0             	not    %rax
  40204b:	48 83 e8 01          	sub    $0x1,%rax
  40204f:	48 8d 0c 02          	lea    (%rdx,%rax,1),%rcx
  402053:	48 8b 55 f0          	mov    -0x10(%rbp),%rdx
  402057:	48 89 d0             	mov    %rdx,%rax
  40205a:	48 01 c0             	add    %rax,%rax
  40205d:	48 01 d0             	add    %rdx,%rax
  402060:	48 8d 04 01          	lea    (%rcx,%rax,1),%rax
  402064:	48 83 e8 80          	sub    $0xffffffffffffff80,%rax
  402068:	48 89 45 f8          	mov    %rax,-0x8(%rbp)
  40206c:	48 81 7d f8 00 20 00 	cmpq   $0x2000,-0x8(%rbp)
  402073:	00 
  402074:	76 7c                	jbe    4020f2 <submitr+0x361>
  402076:	48 8b 45 10          	mov    0x10(%rbp),%rax
  40207a:	c7 00 45 72 72 6f    	movl   $0x6f727245,(%rax)
  402080:	c7 40 04 72 3a 20 52 	movl   $0x52203a72,0x4(%rax)
  402087:	c7 40 08 65 73 75 6c 	movl   $0x6c757365,0x8(%rax)
  40208e:	c7 40 0c 74 20 73 74 	movl   $0x74732074,0xc(%rax)
  402095:	c7 40 10 72 69 6e 67 	movl   $0x676e6972,0x10(%rax)
  40209c:	c7 40 14 20 74 6f 6f 	movl   $0x6f6f7420,0x14(%rax)
  4020a3:	c7 40 18 20 6c 61 72 	movl   $0x72616c20,0x18(%rax)
  4020aa:	c7 40 1c 67 65 2e 20 	movl   $0x202e6567,0x1c(%rax)
  4020b1:	c7 40 20 49 6e 63 72 	movl   $0x72636e49,0x20(%rax)
  4020b8:	c7 40 24 65 61 73 65 	movl   $0x65736165,0x24(%rax)
  4020bf:	c7 40 28 20 53 55 42 	movl   $0x42555320,0x28(%rax)
  4020c6:	c7 40 2c 4d 49 54 52 	movl   $0x5254494d,0x2c(%rax)
  4020cd:	c7 40 30 5f 4d 41 58 	movl   $0x58414d5f,0x30(%rax)
  4020d4:	c7 40 34 42 55 46 00 	movl   $0x465542,0x34(%rax)
  4020db:	8b 7d e4             	mov    -0x1c(%rbp),%edi
  4020de:	e8 7d e9 ff ff       	callq  400a60 <close@plt>
  4020e3:	c7 85 7c 5f ff ff ff 	movl   $0xffffffff,-0xa084(%rbp)
  4020ea:	ff ff ff 
  4020ed:	e9 bb 04 00 00       	jmpq   4025ad <submitr+0x81c>
  4020f2:	48 8d 85 c0 9f ff ff 	lea    -0x6040(%rbp),%rax
  4020f9:	48 89 c7             	mov    %rax,%rdi
  4020fc:	ba 00 20 00 00       	mov    $0x2000,%edx
  402101:	be 00 00 00 00       	mov    $0x0,%esi
  402106:	e8 45 e9 ff ff       	callq  400a50 <memset@plt>
  40210b:	48 8d b5 c0 9f ff ff 	lea    -0x6040(%rbp),%rsi
  402112:	48 8b bd 80 5f ff ff 	mov    -0xa080(%rbp),%rdi
  402119:	e8 fd fa ff ff       	callq  401c1b <urlencode>
  40211e:	85 c0                	test   %eax,%eax
  402120:	0f 89 94 00 00 00    	jns    4021ba <submitr+0x429>
  402126:	48 8b 45 10          	mov    0x10(%rbp),%rax
  40212a:	c7 00 45 72 72 6f    	movl   $0x6f727245,(%rax)
  402130:	c7 40 04 72 3a 20 52 	movl   $0x52203a72,0x4(%rax)
  402137:	c7 40 08 65 73 75 6c 	movl   $0x6c757365,0x8(%rax)
  40213e:	c7 40 0c 74 20 73 74 	movl   $0x74732074,0xc(%rax)
  402145:	c7 40 10 72 69 6e 67 	movl   $0x676e6972,0x10(%rax)
  40214c:	c7 40 14 20 63 6f 6e 	movl   $0x6e6f6320,0x14(%rax)
  402153:	c7 40 18 74 61 69 6e 	movl   $0x6e696174,0x18(%rax)
  40215a:	c7 40 1c 73 20 61 6e 	movl   $0x6e612073,0x1c(%rax)
  402161:	c7 40 20 20 69 6c 6c 	movl   $0x6c6c6920,0x20(%rax)
  402168:	c7 40 24 65 67 61 6c 	movl   $0x6c616765,0x24(%rax)
  40216f:	c7 40 28 20 6f 72 20 	movl   $0x20726f20,0x28(%rax)
  402176:	c7 40 2c 75 6e 70 72 	movl   $0x72706e75,0x2c(%rax)
  40217d:	c7 40 30 69 6e 74 61 	movl   $0x61746e69,0x30(%rax)
  402184:	c7 40 34 62 6c 65 20 	movl   $0x20656c62,0x34(%rax)
  40218b:	c7 40 38 63 68 61 72 	movl   $0x72616863,0x38(%rax)
  402192:	c7 40 3c 61 63 74 65 	movl   $0x65746361,0x3c(%rax)
  402199:	66 c7 40 40 72 2e    	movw   $0x2e72,0x40(%rax)
  40219f:	c6 40 42 00          	movb   $0x0,0x42(%rax)
  4021a3:	8b 7d e4             	mov    -0x1c(%rbp),%edi
  4021a6:	e8 b5 e8 ff ff       	callq  400a60 <close@plt>
  4021ab:	c7 85 7c 5f ff ff ff 	movl   $0xffffffff,-0xa084(%rbp)
  4021b2:	ff ff ff 
  4021b5:	e9 f3 03 00 00       	jmpq   4025ad <submitr+0x81c>
  4021ba:	48 8d 85 c0 9f ff ff 	lea    -0x6040(%rbp),%rax
  4021c1:	48 8b 95 88 5f ff ff 	mov    -0xa078(%rbp),%rdx
  4021c8:	48 8b 8d 90 5f ff ff 	mov    -0xa070(%rbp),%rcx
  4021cf:	48 8b b5 98 5f ff ff 	mov    -0xa068(%rbp),%rsi
  4021d6:	48 8d bd c0 bf ff ff 	lea    -0x4040(%rbp),%rdi
  4021dd:	49 89 c1             	mov    %rax,%r9
  4021e0:	49 89 d0             	mov    %rdx,%r8
  4021e3:	48 89 f2             	mov    %rsi,%rdx
  4021e6:	be 60 2e 40 00       	mov    $0x402e60,%esi
  4021eb:	b8 00 00 00 00       	mov    $0x0,%eax
  4021f0:	e8 1b e9 ff ff       	callq  400b10 <sprintf@plt>
  4021f5:	48 8d 85 c0 bf ff ff 	lea    -0x4040(%rbp),%rax
  4021fc:	48 c7 c1 ff ff ff ff 	mov    $0xffffffffffffffff,%rcx
  402203:	48 89 85 50 5f ff ff 	mov    %rax,-0xa0b0(%rbp)
  40220a:	b8 00 00 00 00       	mov    $0x0,%eax
  40220f:	fc                   	cld    
  402210:	48 8b bd 50 5f ff ff 	mov    -0xa0b0(%rbp),%rdi
  402217:	f2 ae                	repnz scas %es:(%rdi),%al
  402219:	48 89 c8             	mov    %rcx,%rax
  40221c:	48 f7 d0             	not    %rax
  40221f:	48 8d 50 ff          	lea    -0x1(%rax),%rdx
  402223:	48 8d b5 c0 bf ff ff 	lea    -0x4040(%rbp),%rsi
  40222a:	8b 7d e4             	mov    -0x1c(%rbp),%edi
  40222d:	e8 64 f9 ff ff       	callq  401b96 <rio_writen>
  402232:	48 85 c0             	test   %rax,%rax
  402235:	79 67                	jns    40229e <submitr+0x50d>
  402237:	48 8b 45 10          	mov    0x10(%rbp),%rax
  40223b:	c7 00 45 72 72 6f    	movl   $0x6f727245,(%rax)
  402241:	c7 40 04 72 3a 20 43 	movl   $0x43203a72,0x4(%rax)
  402248:	c7 40 08 6c 69 65 6e 	movl   $0x6e65696c,0x8(%rax)
  40224f:	c7 40 0c 74 20 75 6e 	movl   $0x6e752074,0xc(%rax)
  402256:	c7 40 10 61 62 6c 65 	movl   $0x656c6261,0x10(%rax)
  40225d:	c7 40 14 20 74 6f 20 	movl   $0x206f7420,0x14(%rax)
  402264:	c7 40 18 77 72 69 74 	movl   $0x74697277,0x18(%rax)
  40226b:	c7 40 1c 65 20 74 6f 	movl   $0x6f742065,0x1c(%rax)
  402272:	c7 40 20 20 74 68 65 	movl   $0x65687420,0x20(%rax)
  402279:	c7 40 24 20 73 65 72 	movl   $0x72657320,0x24(%rax)
  402280:	c7 40 28 76 65 72 00 	movl   $0x726576,0x28(%rax)
  402287:	8b 7d e4             	mov    -0x1c(%rbp),%edi
  40228a:	e8 d1 e7 ff ff       	callq  400a60 <close@plt>
  40228f:	c7 85 7c 5f ff ff ff 	movl   $0xffffffff,-0xa084(%rbp)
  402296:	ff ff ff 
  402299:	e9 0f 03 00 00       	jmpq   4025ad <submitr+0x81c>
  40229e:	8b 75 e4             	mov    -0x1c(%rbp),%esi
  4022a1:	48 8d bd c0 df ff ff 	lea    -0x2040(%rbp),%rdi
  4022a8:	e8 17 f7 ff ff       	callq  4019c4 <rio_readinitb>
  4022ad:	48 8d b5 c0 bf ff ff 	lea    -0x4040(%rbp),%rsi
  4022b4:	48 8d bd c0 df ff ff 	lea    -0x2040(%rbp),%rdi
  4022bb:	ba 00 20 00 00       	mov    $0x2000,%edx
  4022c0:	e8 33 f8 ff ff       	callq  401af8 <rio_readlineb>
  4022c5:	48 85 c0             	test   %rax,%rax
  4022c8:	7f 7b                	jg     402345 <submitr+0x5b4>
  4022ca:	48 8b 45 10          	mov    0x10(%rbp),%rax
  4022ce:	c7 00 45 72 72 6f    	movl   $0x6f727245,(%rax)
  4022d4:	c7 40 04 72 3a 20 43 	movl   $0x43203a72,0x4(%rax)
  4022db:	c7 40 08 6c 69 65 6e 	movl   $0x6e65696c,0x8(%rax)
  4022e2:	c7 40 0c 74 20 75 6e 	movl   $0x6e752074,0xc(%rax)
  4022e9:	c7 40 10 61 62 6c 65 	movl   $0x656c6261,0x10(%rax)
  4022f0:	c7 40 14 20 74 6f 20 	movl   $0x206f7420,0x14(%rax)
  4022f7:	c7 40 18 72 65 61 64 	movl   $0x64616572,0x18(%rax)
  4022fe:	c7 40 1c 20 66 69 72 	movl   $0x72696620,0x1c(%rax)
  402305:	c7 40 20 73 74 20 68 	movl   $0x68207473,0x20(%rax)
  40230c:	c7 40 24 65 61 64 65 	movl   $0x65646165,0x24(%rax)
  402313:	c7 40 28 72 20 66 72 	movl   $0x72662072,0x28(%rax)
  40231a:	c7 40 2c 6f 6d 20 73 	movl   $0x73206d6f,0x2c(%rax)
  402321:	c7 40 30 65 72 76 65 	movl   $0x65767265,0x30(%rax)
  402328:	66 c7 40 34 72 00    	movw   $0x72,0x34(%rax)
  40232e:	8b 7d e4             	mov    -0x1c(%rbp),%edi
  402331:	e8 2a e7 ff ff       	callq  400a60 <close@plt>
  402336:	c7 85 7c 5f ff ff ff 	movl   $0xffffffff,-0xa084(%rbp)
  40233d:	ff ff ff 
  402340:	e9 68 02 00 00       	jmpq   4025ad <submitr+0x81c>
  402345:	48 8d 85 b0 5f ff ff 	lea    -0xa050(%rbp),%rax
  40234c:	48 8d 8d bc 7f ff ff 	lea    -0x8044(%rbp),%rcx
  402353:	48 8d 95 c0 7f ff ff 	lea    -0x8040(%rbp),%rdx
  40235a:	48 8d bd c0 bf ff ff 	lea    -0x4040(%rbp),%rdi
  402361:	49 89 c0             	mov    %rax,%r8
  402364:	be aa 2e 40 00       	mov    $0x402eaa,%esi
  402369:	b8 00 00 00 00       	mov    $0x0,%eax
  40236e:	e8 ad e7 ff ff       	callq  400b20 <sscanf@plt>
  402373:	8b 85 bc 7f ff ff    	mov    -0x8044(%rbp),%eax
  402379:	3d c8 00 00 00       	cmp    $0xc8,%eax
  40237e:	0f 84 c6 00 00 00    	je     40244a <submitr+0x6b9>
  402384:	8b 95 bc 7f ff ff    	mov    -0x8044(%rbp),%edx
  40238a:	48 8d 8d b0 5f ff ff 	lea    -0xa050(%rbp),%rcx
  402391:	be c0 2e 40 00       	mov    $0x402ec0,%esi
  402396:	48 8b 7d 10          	mov    0x10(%rbp),%rdi
  40239a:	b8 00 00 00 00       	mov    $0x0,%eax
  40239f:	e8 6c e7 ff ff       	callq  400b10 <sprintf@plt>
  4023a4:	8b 7d e4             	mov    -0x1c(%rbp),%edi
  4023a7:	e8 b4 e6 ff ff       	callq  400a60 <close@plt>
  4023ac:	c7 85 7c 5f ff ff ff 	movl   $0xffffffff,-0xa084(%rbp)
  4023b3:	ff ff ff 
  4023b6:	e9 f2 01 00 00       	jmpq   4025ad <submitr+0x81c>
  4023bb:	48 8d b5 c0 bf ff ff 	lea    -0x4040(%rbp),%rsi
  4023c2:	48 8d bd c0 df ff ff 	lea    -0x2040(%rbp),%rdi
  4023c9:	ba 00 20 00 00       	mov    $0x2000,%edx
  4023ce:	e8 25 f7 ff ff       	callq  401af8 <rio_readlineb>
  4023d3:	48 85 c0             	test   %rax,%rax
  4023d6:	7f 72                	jg     40244a <submitr+0x6b9>
  4023d8:	48 8b 45 10          	mov    0x10(%rbp),%rax
  4023dc:	c7 00 45 72 72 6f    	movl   $0x6f727245,(%rax)
  4023e2:	c7 40 04 72 3a 20 43 	movl   $0x43203a72,0x4(%rax)
  4023e9:	c7 40 08 6c 69 65 6e 	movl   $0x6e65696c,0x8(%rax)
  4023f0:	c7 40 0c 74 20 75 6e 	movl   $0x6e752074,0xc(%rax)
  4023f7:	c7 40 10 61 62 6c 65 	movl   $0x656c6261,0x10(%rax)
  4023fe:	c7 40 14 20 74 6f 20 	movl   $0x206f7420,0x14(%rax)
  402405:	c7 40 18 72 65 61 64 	movl   $0x64616572,0x18(%rax)
  40240c:	c7 40 1c 20 68 65 61 	movl   $0x61656820,0x1c(%rax)
  402413:	c7 40 20 64 65 72 73 	movl   $0x73726564,0x20(%rax)
  40241a:	c7 40 24 20 66 72 6f 	movl   $0x6f726620,0x24(%rax)
  402421:	c7 40 28 6d 20 73 65 	movl   $0x6573206d,0x28(%rax)
  402428:	c7 40 2c 72 76 65 72 	movl   $0x72657672,0x2c(%rax)
  40242f:	c6 40 30 00          	movb   $0x0,0x30(%rax)
  402433:	8b 7d e4             	mov    -0x1c(%rbp),%edi
  402436:	e8 25 e6 ff ff       	callq  400a60 <close@plt>
  40243b:	c7 85 7c 5f ff ff ff 	movl   $0xffffffff,-0xa084(%rbp)
  402442:	ff ff ff 
  402445:	e9 63 01 00 00       	jmpq   4025ad <submitr+0x81c>
  40244a:	48 8d 85 c0 bf ff ff 	lea    -0x4040(%rbp),%rax
  402451:	48 89 85 48 5f ff ff 	mov    %rax,-0xa0b8(%rbp)
  402458:	48 c7 85 40 5f ff ff 	movq   $0x402eed,-0xa0c0(%rbp)
  40245f:	ed 2e 40 00 
  402463:	48 c7 85 38 5f ff ff 	movq   $0x3,-0xa0c8(%rbp)
  40246a:	03 00 00 00 
  40246e:	fc                   	cld    
  40246f:	48 8b b5 48 5f ff ff 	mov    -0xa0b8(%rbp),%rsi
  402476:	48 8b bd 40 5f ff ff 	mov    -0xa0c0(%rbp),%rdi
  40247d:	48 8b 8d 38 5f ff ff 	mov    -0xa0c8(%rbp),%rcx
  402484:	f3 a6                	repz cmpsb %es:(%rdi),%ds:(%rsi)
  402486:	0f 97 c2             	seta   %dl
  402489:	0f 92 c0             	setb   %al
  40248c:	89 d1                	mov    %edx,%ecx
  40248e:	28 c1                	sub    %al,%cl
  402490:	89 c8                	mov    %ecx,%eax
  402492:	0f be c0             	movsbl %al,%eax
  402495:	85 c0                	test   %eax,%eax
  402497:	0f 85 1e ff ff ff    	jne    4023bb <submitr+0x62a>
  40249d:	48 8d b5 c0 bf ff ff 	lea    -0x4040(%rbp),%rsi
  4024a4:	48 8d bd c0 df ff ff 	lea    -0x2040(%rbp),%rdi
  4024ab:	ba 00 20 00 00       	mov    $0x2000,%edx
  4024b0:	e8 43 f6 ff ff       	callq  401af8 <rio_readlineb>
  4024b5:	48 85 c0             	test   %rax,%rax
  4024b8:	7f 79                	jg     402533 <submitr+0x7a2>
  4024ba:	48 8b 45 10          	mov    0x10(%rbp),%rax
  4024be:	c7 00 45 72 72 6f    	movl   $0x6f727245,(%rax)
  4024c4:	c7 40 04 72 3a 20 43 	movl   $0x43203a72,0x4(%rax)
  4024cb:	c7 40 08 6c 69 65 6e 	movl   $0x6e65696c,0x8(%rax)
  4024d2:	c7 40 0c 74 20 75 6e 	movl   $0x6e752074,0xc(%rax)
  4024d9:	c7 40 10 61 62 6c 65 	movl   $0x656c6261,0x10(%rax)
  4024e0:	c7 40 14 20 74 6f 20 	movl   $0x206f7420,0x14(%rax)
  4024e7:	c7 40 18 72 65 61 64 	movl   $0x64616572,0x18(%rax)
  4024ee:	c7 40 1c 20 73 74 61 	movl   $0x61747320,0x1c(%rax)
  4024f5:	c7 40 20 74 75 73 20 	movl   $0x20737574,0x20(%rax)
  4024fc:	c7 40 24 6d 65 73 73 	movl   $0x7373656d,0x24(%rax)
  402503:	c7 40 28 61 67 65 20 	movl   $0x20656761,0x28(%rax)
  40250a:	c7 40 2c 66 72 6f 6d 	movl   $0x6d6f7266,0x2c(%rax)
  402511:	c7 40 30 20 73 65 72 	movl   $0x72657320,0x30(%rax)
  402518:	c7 40 34 76 65 72 00 	movl   $0x726576,0x34(%rax)
  40251f:	8b 7d e4             	mov    -0x1c(%rbp),%edi
  402522:	e8 39 e5 ff ff       	callq  400a60 <close@plt>
  402527:	c7 85 7c 5f ff ff ff 	movl   $0xffffffff,-0xa084(%rbp)
  40252e:	ff ff ff 
  402531:	eb 7a                	jmp    4025ad <submitr+0x81c>
  402533:	48 8d b5 c0 bf ff ff 	lea    -0x4040(%rbp),%rsi
  40253a:	48 8b 7d 10          	mov    0x10(%rbp),%rdi
  40253e:	e8 7d e6 ff ff       	callq  400bc0 <strcpy@plt>
  402543:	8b 7d e4             	mov    -0x1c(%rbp),%edi
  402546:	e8 15 e5 ff ff       	callq  400a60 <close@plt>
  40254b:	48 8b 45 10          	mov    0x10(%rbp),%rax
  40254f:	48 89 85 30 5f ff ff 	mov    %rax,-0xa0d0(%rbp)
  402556:	48 c7 85 28 5f ff ff 	movq   $0x402ef0,-0xa0d8(%rbp)
  40255d:	f0 2e 40 00 
  402561:	48 c7 85 20 5f ff ff 	movq   $0x3,-0xa0e0(%rbp)
  402568:	03 00 00 00 
  40256c:	fc                   	cld    
  40256d:	48 8b b5 30 5f ff ff 	mov    -0xa0d0(%rbp),%rsi
  402574:	48 8b bd 28 5f ff ff 	mov    -0xa0d8(%rbp),%rdi
  40257b:	48 8b 8d 20 5f ff ff 	mov    -0xa0e0(%rbp),%rcx
  402582:	f3 a6                	repz cmpsb %es:(%rdi),%ds:(%rsi)
  402584:	0f 97 c2             	seta   %dl
  402587:	0f 92 c0             	setb   %al
  40258a:	89 d1                	mov    %edx,%ecx
  40258c:	28 c1                	sub    %al,%cl
  40258e:	89 c8                	mov    %ecx,%eax
  402590:	0f be c0             	movsbl %al,%eax
  402593:	85 c0                	test   %eax,%eax
  402595:	75 0c                	jne    4025a3 <submitr+0x812>
  402597:	c7 85 7c 5f ff ff 00 	movl   $0x0,-0xa084(%rbp)
  40259e:	00 00 00 
  4025a1:	eb 0a                	jmp    4025ad <submitr+0x81c>
  4025a3:	c7 85 7c 5f ff ff ff 	movl   $0xffffffff,-0xa084(%rbp)
  4025aa:	ff ff ff 
  4025ad:	8b 85 7c 5f ff ff    	mov    -0xa084(%rbp),%eax
  4025b3:	c9                   	leaveq 
  4025b4:	c3                   	retq   

00000000004025b5 <init_timeout>:
  4025b5:	55                   	push   %rbp
  4025b6:	48 89 e5             	mov    %rsp,%rbp
  4025b9:	48 83 ec 10          	sub    $0x10,%rsp
  4025bd:	89 7d fc             	mov    %edi,-0x4(%rbp)
  4025c0:	83 7d fc 00          	cmpl   $0x0,-0x4(%rbp)
  4025c4:	74 24                	je     4025ea <init_timeout+0x35>
  4025c6:	83 7d fc 00          	cmpl   $0x0,-0x4(%rbp)
  4025ca:	79 07                	jns    4025d3 <init_timeout+0x1e>
  4025cc:	c7 45 fc 00 00 00 00 	movl   $0x0,-0x4(%rbp)
  4025d3:	be 94 19 40 00       	mov    $0x401994,%esi
  4025d8:	bf 0e 00 00 00       	mov    $0xe,%edi
  4025dd:	e8 8e e5 ff ff       	callq  400b70 <signal@plt>
  4025e2:	8b 7d fc             	mov    -0x4(%rbp),%edi
  4025e5:	e8 b6 e5 ff ff       	callq  400ba0 <alarm@plt>
  4025ea:	c9                   	leaveq 
  4025eb:	c3                   	retq   

00000000004025ec <init_driver>:
  4025ec:	55                   	push   %rbp
  4025ed:	48 89 e5             	mov    %rsp,%rbp
  4025f0:	48 83 ec 40          	sub    $0x40,%rsp
  4025f4:	48 89 7d c8          	mov    %rdi,-0x38(%rbp)
  4025f8:	48 c7 45 f0 f3 2e 40 	movq   $0x402ef3,-0x10(%rbp)
  4025ff:	00 
  402600:	c7 45 fc 6e 3b 00 00 	movl   $0x3b6e,-0x4(%rbp)
  402607:	be 01 00 00 00       	mov    $0x1,%esi
  40260c:	bf 0d 00 00 00       	mov    $0xd,%edi
  402611:	e8 5a e5 ff ff       	callq  400b70 <signal@plt>
  402616:	be 01 00 00 00       	mov    $0x1,%esi
  40261b:	bf 1d 00 00 00       	mov    $0x1d,%edi
  402620:	e8 4b e5 ff ff       	callq  400b70 <signal@plt>
  402625:	be 01 00 00 00       	mov    $0x1,%esi
  40262a:	bf 1d 00 00 00       	mov    $0x1d,%edi
  40262f:	e8 3c e5 ff ff       	callq  400b70 <signal@plt>
  402634:	ba 00 00 00 00       	mov    $0x0,%edx
  402639:	be 01 00 00 00       	mov    $0x1,%esi
  40263e:	bf 02 00 00 00       	mov    $0x2,%edi
  402643:	e8 38 e5 ff ff       	callq  400b80 <socket@plt>
  402648:	89 45 e4             	mov    %eax,-0x1c(%rbp)
  40264b:	83 7d e4 00          	cmpl   $0x0,-0x1c(%rbp)
  40264f:	79 54                	jns    4026a5 <init_driver+0xb9>
  402651:	48 8b 45 c8          	mov    -0x38(%rbp),%rax
  402655:	c7 00 45 72 72 6f    	movl   $0x6f727245,(%rax)
  40265b:	c7 40 04 72 3a 20 43 	movl   $0x43203a72,0x4(%rax)
  402662:	c7 40 08 6c 69 65 6e 	movl   $0x6e65696c,0x8(%rax)
  402669:	c7 40 0c 74 20 75 6e 	movl   $0x6e752074,0xc(%rax)
  402670:	c7 40 10 61 62 6c 65 	movl   $0x656c6261,0x10(%rax)
  402677:	c7 40 14 20 74 6f 20 	movl   $0x206f7420,0x14(%rax)
  40267e:	c7 40 18 63 72 65 61 	movl   $0x61657263,0x18(%rax)
  402685:	c7 40 1c 74 65 20 73 	movl   $0x73206574,0x1c(%rax)
  40268c:	c7 40 20 6f 63 6b 65 	movl   $0x656b636f,0x20(%rax)
  402693:	66 c7 40 24 74 00    	movw   $0x74,0x24(%rax)
  402699:	c7 45 c4 ff ff ff ff 	movl   $0xffffffff,-0x3c(%rbp)
  4026a0:	e9 25 01 00 00       	jmpq   4027ca <init_driver+0x1de>
  4026a5:	48 8b 7d f0          	mov    -0x10(%rbp),%rdi
  4026a9:	e8 c2 e3 ff ff       	callq  400a70 <gethostbyname@plt>
  4026ae:	48 89 45 e8          	mov    %rax,-0x18(%rbp)
  4026b2:	48 83 7d e8 00       	cmpq   $0x0,-0x18(%rbp)
  4026b7:	75 6e                	jne    402727 <init_driver+0x13b>
  4026b9:	48 8b 45 c8          	mov    -0x38(%rbp),%rax
  4026bd:	c7 00 45 72 72 6f    	movl   $0x6f727245,(%rax)
  4026c3:	c7 40 04 72 3a 20 44 	movl   $0x44203a72,0x4(%rax)
  4026ca:	c7 40 08 4e 53 20 69 	movl   $0x6920534e,0x8(%rax)
  4026d1:	c7 40 0c 73 20 75 6e 	movl   $0x6e752073,0xc(%rax)
  4026d8:	c7 40 10 61 62 6c 65 	movl   $0x656c6261,0x10(%rax)
  4026df:	c7 40 14 20 74 6f 20 	movl   $0x206f7420,0x14(%rax)
  4026e6:	c7 40 18 72 65 73 6f 	movl   $0x6f736572,0x18(%rax)
  4026ed:	c7 40 1c 6c 76 65 20 	movl   $0x2065766c,0x1c(%rax)
  4026f4:	c7 40 20 73 65 72 76 	movl   $0x76726573,0x20(%rax)
  4026fb:	c7 40 24 65 72 20 61 	movl   $0x61207265,0x24(%rax)
  402702:	c7 40 28 64 64 72 65 	movl   $0x65726464,0x28(%rax)
  402709:	66 c7 40 2c 73 73    	movw   $0x7373,0x2c(%rax)
  40270f:	c6 40 2e 00          	movb   $0x0,0x2e(%rax)
  402713:	8b 7d e4             	mov    -0x1c(%rbp),%edi
  402716:	e8 45 e3 ff ff       	callq  400a60 <close@plt>
  40271b:	c7 45 c4 ff ff ff ff 	movl   $0xffffffff,-0x3c(%rbp)
  402722:	e9 a3 00 00 00       	jmpq   4027ca <init_driver+0x1de>
  402727:	48 8d 45 d0          	lea    -0x30(%rbp),%rax
  40272b:	48 c7 00 00 00 00 00 	movq   $0x0,(%rax)
  402732:	48 c7 40 08 00 00 00 	movq   $0x0,0x8(%rax)
  402739:	00 
  40273a:	66 c7 45 d0 02 00    	movw   $0x2,-0x30(%rbp)
  402740:	48 8b 45 e8          	mov    -0x18(%rbp),%rax
  402744:	8b 40 14             	mov    0x14(%rax),%eax
  402747:	48 63 d0             	movslq %eax,%rdx
  40274a:	48 8d 45 d0          	lea    -0x30(%rbp),%rax
  40274e:	48 8d 70 04          	lea    0x4(%rax),%rsi
  402752:	48 8b 45 e8          	mov    -0x18(%rbp),%rax
  402756:	48 8b 40 18          	mov    0x18(%rax),%rax
  40275a:	48 8b 38             	mov    (%rax),%rdi
  40275d:	e8 8e e3 ff ff       	callq  400af0 <bcopy@plt>
  402762:	8b 45 fc             	mov    -0x4(%rbp),%eax
  402765:	0f b7 f8             	movzwl %ax,%edi
  402768:	e8 23 e3 ff ff       	callq  400a90 <htons@plt>
  40276d:	66 89 45 d2          	mov    %ax,-0x2e(%rbp)
  402771:	48 8d 75 d0          	lea    -0x30(%rbp),%rsi
  402775:	8b 7d e4             	mov    -0x1c(%rbp),%edi
  402778:	ba 10 00 00 00       	mov    $0x10,%edx
  40277d:	e8 ce e3 ff ff       	callq  400b50 <connect@plt>
  402782:	85 c0                	test   %eax,%eax
  402784:	79 28                	jns    4027ae <init_driver+0x1c2>
  402786:	48 8b 55 f0          	mov    -0x10(%rbp),%rdx
  40278a:	48 8b 7d c8          	mov    -0x38(%rbp),%rdi
  40278e:	be 08 2f 40 00       	mov    $0x402f08,%esi
  402793:	b8 00 00 00 00       	mov    $0x0,%eax
  402798:	e8 73 e3 ff ff       	callq  400b10 <sprintf@plt>
  40279d:	8b 7d e4             	mov    -0x1c(%rbp),%edi
  4027a0:	e8 bb e2 ff ff       	callq  400a60 <close@plt>
  4027a5:	c7 45 c4 ff ff ff ff 	movl   $0xffffffff,-0x3c(%rbp)
  4027ac:	eb 1c                	jmp    4027ca <init_driver+0x1de>
  4027ae:	8b 7d e4             	mov    -0x1c(%rbp),%edi
  4027b1:	e8 aa e2 ff ff       	callq  400a60 <close@plt>
  4027b6:	48 8b 45 c8          	mov    -0x38(%rbp),%rax
  4027ba:	66 c7 00 4f 4b       	movw   $0x4b4f,(%rax)
  4027bf:	c6 40 02 00          	movb   $0x0,0x2(%rax)
  4027c3:	c7 45 c4 00 00 00 00 	movl   $0x0,-0x3c(%rbp)
  4027ca:	8b 45 c4             	mov    -0x3c(%rbp),%eax
  4027cd:	c9                   	leaveq 
  4027ce:	c3                   	retq   

00000000004027cf <driver_post>:
  4027cf:	55                   	push   %rbp
  4027d0:	48 89 e5             	mov    %rsp,%rbp
  4027d3:	48 83 ec 40          	sub    $0x40,%rsp
  4027d7:	48 89 7d e8          	mov    %rdi,-0x18(%rbp)
  4027db:	48 89 75 e0          	mov    %rsi,-0x20(%rbp)
  4027df:	89 55 dc             	mov    %edx,-0x24(%rbp)
  4027e2:	48 89 4d d0          	mov    %rcx,-0x30(%rbp)
  4027e6:	83 7d dc 00          	cmpl   $0x0,-0x24(%rbp)
  4027ea:	74 29                	je     402815 <driver_post+0x46>
  4027ec:	48 8b 75 e0          	mov    -0x20(%rbp),%rsi
  4027f0:	bf 2e 2f 40 00       	mov    $0x402f2e,%edi
  4027f5:	b8 00 00 00 00       	mov    $0x0,%eax
  4027fa:	e8 41 e2 ff ff       	callq  400a40 <printf@plt>
  4027ff:	48 8b 45 d0          	mov    -0x30(%rbp),%rax
  402803:	66 c7 00 4f 4b       	movw   $0x4b4f,(%rax)
  402808:	c6 40 02 00          	movb   $0x0,0x2(%rax)
  40280c:	c7 45 cc 00 00 00 00 	movl   $0x0,-0x34(%rbp)
  402813:	eb 5e                	jmp    402873 <driver_post+0xa4>
  402815:	48 83 7d e8 00       	cmpq   $0x0,-0x18(%rbp)
  40281a:	74 43                	je     40285f <driver_post+0x90>
  40281c:	48 8b 45 e8          	mov    -0x18(%rbp),%rax
  402820:	0f b6 00             	movzbl (%rax),%eax
  402823:	84 c0                	test   %al,%al
  402825:	74 38                	je     40285f <driver_post+0x90>
  402827:	48 8b 55 e0          	mov    -0x20(%rbp),%rdx
  40282b:	48 8b 4d e8          	mov    -0x18(%rbp),%rcx
  40282f:	48 8b 45 d0          	mov    -0x30(%rbp),%rax
  402833:	48 89 04 24          	mov    %rax,(%rsp)
  402837:	49 89 d1             	mov    %rdx,%r9
  40283a:	41 b8 45 2f 40 00    	mov    $0x402f45,%r8d
  402840:	ba 49 2f 40 00       	mov    $0x402f49,%edx
  402845:	be 6e 3b 00 00       	mov    $0x3b6e,%esi
  40284a:	bf f3 2e 40 00       	mov    $0x402ef3,%edi
  40284f:	e8 3d f5 ff ff       	callq  401d91 <submitr>
  402854:	89 45 fc             	mov    %eax,-0x4(%rbp)
  402857:	8b 45 fc             	mov    -0x4(%rbp),%eax
  40285a:	89 45 cc             	mov    %eax,-0x34(%rbp)
  40285d:	eb 14                	jmp    402873 <driver_post+0xa4>
  40285f:	48 8b 45 d0          	mov    -0x30(%rbp),%rax
  402863:	66 c7 00 4f 4b       	movw   $0x4b4f,(%rax)
  402868:	c6 40 02 00          	movb   $0x0,0x2(%rax)
  40286c:	c7 45 cc 00 00 00 00 	movl   $0x0,-0x34(%rbp)
  402873:	8b 45 cc             	mov    -0x34(%rbp),%eax
  402876:	c9                   	leaveq 
  402877:	c3                   	retq   
  402878:	90                   	nop
  402879:	90                   	nop
  40287a:	90                   	nop
  40287b:	90                   	nop
  40287c:	90                   	nop
  40287d:	90                   	nop
  40287e:	90                   	nop
  40287f:	90                   	nop

0000000000402880 <__libc_csu_fini>:
  402880:	f3 c3                	repz retq 
  402882:	0f 1f 80 00 00 00 00 	nopl   0x0(%rax)
  402889:	0f 1f 80 00 00 00 00 	nopl   0x0(%rax)

0000000000402890 <__libc_csu_init>:
  402890:	4c 89 64 24 e0       	mov    %r12,-0x20(%rsp)
  402895:	4c 89 6c 24 e8       	mov    %r13,-0x18(%rsp)
  40289a:	4c 8d 25 6b 0c 20 00 	lea    0x200c6b(%rip),%r12        # 60350c <__fini_array_end>
  4028a1:	4c 89 74 24 f0       	mov    %r14,-0x10(%rsp)
  4028a6:	4c 89 7c 24 f8       	mov    %r15,-0x8(%rsp)
  4028ab:	49 89 f6             	mov    %rsi,%r14
  4028ae:	48 89 5c 24 d0       	mov    %rbx,-0x30(%rsp)
  4028b3:	48 89 6c 24 d8       	mov    %rbp,-0x28(%rsp)
  4028b8:	48 83 ec 38          	sub    $0x38,%rsp
  4028bc:	41 89 ff             	mov    %edi,%r15d
  4028bf:	49 89 d5             	mov    %rdx,%r13
  4028c2:	e8 51 e1 ff ff       	callq  400a18 <_init>
  4028c7:	48 8d 05 3e 0c 20 00 	lea    0x200c3e(%rip),%rax        # 60350c <__fini_array_end>
  4028ce:	49 29 c4             	sub    %rax,%r12
  4028d1:	49 c1 fc 03          	sar    $0x3,%r12
  4028d5:	4d 85 e4             	test   %r12,%r12
  4028d8:	74 1e                	je     4028f8 <__libc_csu_init+0x68>
  4028da:	31 ed                	xor    %ebp,%ebp
  4028dc:	48 89 c3             	mov    %rax,%rbx
  4028df:	90                   	nop
  4028e0:	48 83 c5 01          	add    $0x1,%rbp
  4028e4:	4c 89 ea             	mov    %r13,%rdx
  4028e7:	4c 89 f6             	mov    %r14,%rsi
  4028ea:	44 89 ff             	mov    %r15d,%edi
  4028ed:	ff 13                	callq  *(%rbx)
  4028ef:	48 83 c3 08          	add    $0x8,%rbx
  4028f3:	49 39 ec             	cmp    %rbp,%r12
  4028f6:	75 e8                	jne    4028e0 <__libc_csu_init+0x50>
  4028f8:	48 8b 5c 24 08       	mov    0x8(%rsp),%rbx
  4028fd:	48 8b 6c 24 10       	mov    0x10(%rsp),%rbp
  402902:	4c 8b 64 24 18       	mov    0x18(%rsp),%r12
  402907:	4c 8b 6c 24 20       	mov    0x20(%rsp),%r13
  40290c:	4c 8b 74 24 28       	mov    0x28(%rsp),%r14
  402911:	4c 8b 7c 24 30       	mov    0x30(%rsp),%r15
  402916:	48 83 c4 38          	add    $0x38,%rsp
  40291a:	c3                   	retq   
  40291b:	90                   	nop
  40291c:	90                   	nop
  40291d:	90                   	nop
  40291e:	90                   	nop
  40291f:	90                   	nop

0000000000402920 <__do_global_ctors_aux>:
  402920:	55                   	push   %rbp
  402921:	48 89 e5             	mov    %rsp,%rbp
  402924:	53                   	push   %rbx
  402925:	bb 10 35 60 00       	mov    $0x603510,%ebx
  40292a:	48 83 ec 08          	sub    $0x8,%rsp
  40292e:	48 8b 05 db 0b 20 00 	mov    0x200bdb(%rip),%rax        # 603510 <__CTOR_LIST__>
  402935:	48 83 f8 ff          	cmp    $0xffffffffffffffff,%rax
  402939:	74 14                	je     40294f <__do_global_ctors_aux+0x2f>
  40293b:	0f 1f 44 00 00       	nopl   0x0(%rax,%rax,1)
  402940:	48 83 eb 08          	sub    $0x8,%rbx
  402944:	ff d0                	callq  *%rax
  402946:	48 8b 03             	mov    (%rbx),%rax
  402949:	48 83 f8 ff          	cmp    $0xffffffffffffffff,%rax
  40294d:	75 f1                	jne    402940 <__do_global_ctors_aux+0x20>
  40294f:	48 83 c4 08          	add    $0x8,%rsp
  402953:	5b                   	pop    %rbx
  402954:	c9                   	leaveq 
  402955:	c3                   	retq   
  402956:	90                   	nop
  402957:	90                   	nop

Disassembly of section .fini:

0000000000402958 <_fini>:
  402958:	48 83 ec 08          	sub    $0x8,%rsp
  40295c:	e8 ef e2 ff ff       	callq  400c50 <__do_global_dtors_aux>
  402961:	48 83 c4 08          	add    $0x8,%rsp
  402965:	c3                   	retq   

